Component: ARM Compiler 5.06 update 2 (build 183) Tool: armlink [4d35b7]

==============================================================================

Section Cross References

    ucos_task.o(.text) refers to leg.o(.text) for leg_init
    ucos_task.o(.text) refers to time.o(.text) for Get_Cycle_T
    ucos_task.o(.text) refers to pwm_out.o(.text) for Set_DJ_PWM
    ucos_task.o(.text) refers to delay.o(.text) for delay_ms
    ucos_task.o(.text) refers to my_math.o(.text) for my_deathzoom
    ucos_task.o(.text) refers to leg.o(.bss) for leg
    ucos_task.o(.text) refers to ucos_task.o(.bss) for leg_dt
    ucos_task.o(.text) refers to usart_fc.o(.bss) for tinker
    ucos_task.o(.text) refers to ucos_task.o(.data) for kp_face
    ucos_task.o(.text) refers to pwm_out.o(.data) for dj_pan
    ucos_task.o(.text) refers to flash.o(.data) for SBUS_MAX
    ucos_task.o(.text) refers to sbus.o(.data) for channels
    ucos_task.o(.text) refers to dfltui.o(.text) for __aeabi_ui2d
    ucos_task.o(.text) refers to cdrcmple.o(.text) for __aeabi_cdrcmple
    ucos_task.o(.text) refers to dflti.o(.text) for __aeabi_i2d
    ucos_task.o(.text) refers to dmul.o(.text) for __aeabi_dmul
    ucos_task.o(.text) refers to d2f.o(.text) for __aeabi_d2f
    ucos_task.o(.text) refers to f2d.o(.text) for __aeabi_f2d
    ucos_task.o(.text) refers to pow.o(i.__hardfp_pow) for __hardfp_pow
    ucos_task.o(.text) refers to dadd.o(.text) for __aeabi_dadd
    ucos_task.o(.text) refers to sqrt.o(i.__hardfp_sqrt) for __hardfp_sqrt
    ucos_task.o(.text) refers to cdcmple.o(.text) for __aeabi_cdcmple
    ucos_task.o(.text) refers to ddiv.o(.text) for __aeabi_ddiv
    ucos_task.o(.text) refers to mpu6050.o(.bss) for mpu6050_fc
    ucos_task.o(.text) refers to brain.o(.text) for leg_task1
    ucos_task.o(.text) refers to bat.o(.text) for Bat_protect
    ucos_task.o(.text) refers to usart_fc.o(.text) for GOL_LINK_TASK
    ucos_task.o(.text) refers to sin.o(i.__hardfp_sin) for __hardfp_sin
    ucos_task.o(.text) refers to ucos_task.o(.constdata) for .constdata
    ucos_task.o(.text) refers to cos.o(i.__hardfp_cos) for __hardfp_cos
    ucos_task.o(.text) refers to fabs.o(i.__hardfp_fabs) for __hardfp_fabs
    ucos_task.o(.text) refers to led_fc.o(.text) for LEDRGB_STATE
    ucos_task.o(.text) refers to os_core.o(.data) for OSCPUUsage
    main.o(.text) refers to os_mbox.o(.text) for OSMboxCreate
    main.o(.text) refers to os_q.o(.text) for OSQCreate
    main.o(.text) refers to os_flag.o(.text) for OSFlagCreate
    main.o(.text) refers to os_core.o(.text) for OSStatInit
    main.o(.text) refers to os_tmr.o(.text) for OSTmrCreate
    main.o(.text) refers to os_cpu_a.o(.text) for OS_CPU_SR_Save
    main.o(.text) refers to os_task.o(.text) for OSTaskCreate
    main.o(.text) refers to misc.o(.text) for NVIC_PriorityGroupConfig
    main.o(.text) refers to delay.o(.text) for delay_init
    main.o(.text) refers to time.o(.text) for Initial_Timer_SYS
    main.o(.text) refers to rng.o(.text) for RNG_Init
    main.o(.text) refers to leg_lib.o(.text) for set_lisence
    main.o(.text) refers to leg.o(.text) for leg_init
    main.o(.text) refers to brain.o(.text) for leg_task1
    main.o(.text) refers to usart_fc.o(.text) for Usart4_Init
    main.o(.text) refers to pwm_out.o(.text) for PWM_AUX_Out_Init
    main.o(.text) refers to led_fc.o(.text) for LED_Init
    main.o(.text) refers to bat.o(.text) for Adc_Init
    main.o(.text) refers to beep.o(.text) for Beep_Init
    main.o(.text) refers to dma.o(.text) for MYDMA_Config
    main.o(.text) refers to stm32f4xx_usart.o(.text) for USART_DMACmd
    main.o(.text) refers to flash.o(.text) for READ_PARM
    main.o(.text) refers to main.o(.data) for msg_key
    main.o(.text) refers to main.o(.bss) for MsgGrp
    main.o(.text) refers to ucos_task.o(.text) for tmr1_callback
    main.o(.text) refers to ucos_task.o(.data) for tmr1
    main.o(.text) refers to ucos_task.o(.bss) for BRAIN_TASK_STK
    main.o(.text) refers to leg.o(.bss) for leg
    main.o(.text) refers to usart_fc.o(.bss) for SendBuff1
    stm32f4xx_it.o(.text) refers to stm32f4xx_it.o(.data) for hard_fall
    system_stm32f4xx.o(.text) refers to system_stm32f4xx.o(.data) for SystemCoreClock
    startup_stm32f40_41xxx.o(RESET) refers to startup_stm32f40_41xxx.o(STACK) for __initial_sp
    startup_stm32f40_41xxx.o(RESET) refers to startup_stm32f40_41xxx.o(.text) for Reset_Handler
    startup_stm32f40_41xxx.o(RESET) refers to stm32f4xx_it.o(.text) for NMI_Handler
    startup_stm32f40_41xxx.o(RESET) refers to os_cpu_a.o(.text) for PendSV_Handler
    startup_stm32f40_41xxx.o(RESET) refers to delay.o(.text) for SysTick_Handler
    startup_stm32f40_41xxx.o(RESET) refers to usart_fc.o(.text) for USART1_IRQHandler
    startup_stm32f40_41xxx.o(.text) refers to system_stm32f4xx.o(.text) for SystemInit
    startup_stm32f40_41xxx.o(.text) refers to entry.o(.ARM.Collect$$$$00000000) for __main
    delay.o(.text) refers to os_core.o(.text) for OSIntEnter
    delay.o(.text) refers to misc.o(.text) for SysTick_CLKSourceConfig
    delay.o(.text) refers to os_time.o(.text) for OSTimeDly
    delay.o(.text) refers to delay.o(.data) for fac_us
    delay.o(.text) refers to os_core.o(.data) for OSRunning
    stm32f4xx_gpio.o(.text) refers to stm32f4xx_rcc.o(.text) for RCC_AHB1PeriphResetCmd
    stm32f4xx_fsmc.o(.text) refers to stm32f4xx_fsmc.o(.constdata) for FSMC_DefaultTimingStruct
    stm32f4xx_rcc.o(.text) refers to stm32f4xx_rcc.o(.data) for APBAHBPrescTable
    stm32f4xx_syscfg.o(.text) refers to stm32f4xx_rcc.o(.text) for RCC_APB2PeriphResetCmd
    stm32f4xx_usart.o(.text) refers to stm32f4xx_rcc.o(.text) for RCC_APB2PeriphResetCmd
    stm32f4xx_tim.o(.text) refers to stm32f4xx_rcc.o(.text) for RCC_APB2PeriphResetCmd
    stm32f4xx_pwr.o(.text) refers to stm32f4xx_rcc.o(.text) for RCC_APB1PeriphResetCmd
    stm32f4xx_spi.o(.text) refers to stm32f4xx_rcc.o(.text) for RCC_APB2PeriphResetCmd
    stm32f4xx_rng.o(.text) refers to stm32f4xx_rcc.o(.text) for RCC_AHB2PeriphResetCmd
    stm32f4xx_dac.o(.text) refers to stm32f4xx_rcc.o(.text) for RCC_APB1PeriphResetCmd
    stm32f4xx_adc.o(.text) refers to stm32f4xx_rcc.o(.text) for RCC_APB2PeriphResetCmd
    os_core.o(.text) refers to os_task.o(.text) for OSTaskStkChk
    os_core.o(.text) refers to os_time.o(.text) for OSTimeDly
    os_core.o(.text) refers to os_cpu_a.o(.text) for OS_CPU_SR_Save
    os_core.o(.text) refers to os_cpu_c.o(.text) for OSTaskStatHook
    os_core.o(.text) refers to os_flag.o(.text) for OS_FlagInit
    os_core.o(.text) refers to os_q.o(.text) for OS_QInit
    os_core.o(.text) refers to os_tmr.o(.text) for OSTmr_Init
    os_core.o(.text) refers to os_core.o(.bss) for OSTCBPrioTbl
    os_core.o(.text) refers to os_core.o(.data) for OSStatRdy
    os_core.o(.text) refers to os_core.o(.constdata) for OSUnMapTbl
    os_flag.o(.text) refers to os_cpu_a.o(.text) for OS_CPU_SR_Save
    os_flag.o(.text) refers to os_core.o(.text) for OS_Sched
    os_flag.o(.text) refers to os_core.o(.data) for OSIntNesting
    os_flag.o(.text) refers to os_core.o(.bss) for OSFlagTbl
    os_mbox.o(.text) refers to os_cpu_a.o(.text) for OS_CPU_SR_Save
    os_mbox.o(.text) refers to os_core.o(.text) for OS_EventWaitListInit
    os_mbox.o(.text) refers to os_core.o(.data) for OSIntNesting
    os_mutex.o(.text) refers to os_cpu_a.o(.text) for OS_CPU_SR_Save
    os_mutex.o(.text) refers to os_core.o(.text) for OS_EventWaitListInit
    os_mutex.o(.text) refers to os_core.o(.data) for OSIntNesting
    os_mutex.o(.text) refers to os_core.o(.bss) for OSTCBPrioTbl
    os_q.o(.text) refers to os_cpu_a.o(.text) for OS_CPU_SR_Save
    os_q.o(.text) refers to os_core.o(.text) for OS_EventWaitListInit
    os_q.o(.text) refers to os_core.o(.data) for OSIntNesting
    os_q.o(.text) refers to os_core.o(.bss) for OSQTbl
    os_sem.o(.text) refers to os_cpu_a.o(.text) for OS_CPU_SR_Save
    os_sem.o(.text) refers to os_core.o(.text) for OS_EventWaitListInit
    os_sem.o(.text) refers to os_core.o(.data) for OSIntNesting
    os_task.o(.text) refers to os_cpu_a.o(.text) for OS_CPU_SR_Save
    os_task.o(.text) refers to os_core.o(.text) for OS_Sched
    os_task.o(.text) refers to os_cpu_c.o(.text) for OSTaskStkInit
    os_task.o(.text) refers to os_flag.o(.text) for OS_FlagUnlink
    os_task.o(.text) refers to os_core.o(.bss) for OSTCBPrioTbl
    os_task.o(.text) refers to os_core.o(.data) for OSTCBCur
    os_time.o(.text) refers to os_cpu_a.o(.text) for OS_CPU_SR_Save
    os_time.o(.text) refers to os_core.o(.text) for OS_Sched
    os_time.o(.text) refers to os_core.o(.data) for OSIntNesting
    os_time.o(.text) refers to os_core.o(.bss) for OSTCBPrioTbl
    os_tmr.o(.text) refers to os_core.o(.text) for OSSchedLock
    os_tmr.o(.text) refers to os_core.o(.data) for OSTmrFreeList
    os_tmr.o(.text) refers to os_core.o(.bss) for OSTmrWheelTbl
    os_tmr.o(.text) refers to os_sem.o(.text) for OSSemPost
    os_tmr.o(.text) refers to os_task.o(.text) for OSTaskCreateExt
    os_cpu_a.o(.text) refers to os_core.o(.data) for OSRunning
    os_cpu_a.o(.text) refers to os_cpu_c.o(.text) for OSTaskSwHook
    os_cpu_c.o(.text) refers to os_tmr.o(.text) for OSTmrSignal
    os_cpu_c.o(.text) refers to os_cpu_c.o(.data) for OSTmrCtr
    os_cpu_c.o(.text) refers to os_task.o(.text) for OS_TaskReturn
    flash.o(.text) refers to stm32f4xx_flash.o(.text) for FLASH_Unlock
    flash.o(.text) refers to mpu6050.o(.bss) for mpu6050_fc
    flash.o(.text) refers to flash.o(.bss) for FLASH_Buffer
    flash.o(.text) refers to hml5833l.o(.data) for ak8975
    flash.o(.text) refers to flash.o(.data) for SONAR_HEIGHT
    flash.o(.text) refers to f2d.o(.text) for __aeabi_f2d
    flash.o(.text) refers to ddiv.o(.text) for __aeabi_ddiv
    flash.o(.text) refers to d2f.o(.text) for __aeabi_d2f
    flash.o(.text) refers to cdrcmple.o(.text) for __aeabi_cdrcmple
    led_fc.o(.text) refers to stm32f4xx_gpio.o(.text) for GPIO_ResetBits
    led_fc.o(.text) refers to stm32f4xx_rcc.o(.text) for RCC_AHB1PeriphClockCmd
    led_fc.o(.text) refers to time.o(.text) for Delay_ms
    led_fc.o(.text) refers to dfltui.o(.text) for __aeabi_ui2d
    led_fc.o(.text) refers to cdrcmple.o(.text) for __aeabi_cdrcmple
    led_fc.o(.text) refers to beep.o(.text) for Play_Music_Task
    led_fc.o(.text) refers to led_fc.o(.data) for LED
    led_fc.o(.text) refers to mpu6050.o(.bss) for mpu6050
    led_fc.o(.text) refers to hml5833l.o(.data) for Mag_CALIBRATED
    led_fc.o(.text) refers to beep.o(.data) for fc_state_beep
    pwm_out.o(.text) refers to usart_fc.o(.text) for Send_DJ11_12
    pwm_out.o(.text) refers to stm32f4xx_tim.o(.text) for TIM_TimeBaseStructInit
    pwm_out.o(.text) refers to stm32f4xx_rcc.o(.text) for RCC_APB1PeriphClockCmd
    pwm_out.o(.text) refers to stm32f4xx_gpio.o(.text) for GPIO_Init
    pwm_out.o(.text) refers to leg.o(.bss) for leg
    pwm_out.o(.text) refers to pwm_out.o(.data) for dj_out
    pwm_out.o(.text) refers to system_stm32f4xx.o(.data) for SystemCoreClock
    time.o(.text) refers to stm32f4xx_rcc.o(.text) for RCC_GetClocksFreq
    time.o(.text) refers to misc.o(.text) for SysTick_CLKSourceConfig
    time.o(.text) refers to delay.o(.text) for delay_us
    time.o(.text) refers to time.o(.bss) for Cycle_T
    dma.o(.text) refers to stm32f4xx_rcc.o(.text) for RCC_AHB1PeriphClockCmd
    dma.o(.text) refers to stm32f4xx_dma.o(.text) for DMA_DeInit
    rng.o(.text) refers to stm32f4xx_rcc.o(.text) for RCC_AHB2PeriphClockCmd
    rng.o(.text) refers to stm32f4xx_rng.o(.text) for RNG_Cmd
    rng.o(.text) refers to delay.o(.text) for delay_us
    spi_nrf.o(.text) refers to stm32f4xx_gpio.o(.text) for GPIO_SetBits
    spi_nrf.o(.text) refers to stm32f4xx_rcc.o(.text) for RCC_AHB1PeriphClockCmd
    spi_nrf.o(.text) refers to stm32f4xx_spi.o(.text) for SPI_Init
    bat.o(.text) refers to stm32f4xx_rcc.o(.text) for RCC_AHB1PeriphClockCmd
    bat.o(.text) refers to stm32f4xx_gpio.o(.text) for GPIO_Init
    bat.o(.text) refers to stm32f4xx_adc.o(.text) for ADC_CommonInit
    bat.o(.text) refers to time.o(.text) for Delay_ms
    bat.o(.text) refers to f2d.o(.text) for __aeabi_f2d
    bat.o(.text) refers to cdrcmple.o(.text) for __aeabi_cdrcmple
    bat.o(.text) refers to cdcmple.o(.text) for __aeabi_cdcmple
    bat.o(.text) refers to dfltui.o(.text) for __aeabi_ui2d
    bat.o(.text) refers to dmul.o(.text) for __aeabi_dmul
    bat.o(.text) refers to d2f.o(.text) for __aeabi_d2f
    bat.o(.text) refers to dadd.o(.text) for __aeabi_dadd
    bat.o(.text) refers to bat.o(.data) for k_ad
    bat.o(.text) refers to bat.o(.bss) for cnt
    beep.o(.text) refers to stm32f4xx_tim.o(.text) for TIM_TimeBaseInit
    beep.o(.text) refers to delay.o(.text) for delay_ms
    beep.o(.text) refers to f2d.o(.text) for __aeabi_f2d
    beep.o(.text) refers to dflti.o(.text) for __aeabi_i2d
    beep.o(.text) refers to ddiv.o(.text) for __aeabi_ddiv
    beep.o(.text) refers to dfltui.o(.text) for __aeabi_ui2d
    beep.o(.text) refers to cdrcmple.o(.text) for __aeabi_cdrcmple
    beep.o(.text) refers to stm32f4xx_rcc.o(.text) for RCC_APB2PeriphClockCmd
    beep.o(.text) refers to stm32f4xx_gpio.o(.text) for GPIO_PinAFConfig
    beep.o(.text) refers to beep.o(.data) for tone_table
    usart_fc.o(.text) refers to stm32f4xx_rcc.o(.text) for RCC_APB2PeriphClockCmd
    usart_fc.o(.text) refers to misc.o(.text) for NVIC_Init
    usart_fc.o(.text) refers to stm32f4xx_gpio.o(.text) for GPIO_PinAFConfig
    usart_fc.o(.text) refers to stm32f4xx_usart.o(.text) for USART_Init
    usart_fc.o(.text) refers to pwm_out.o(.data) for dj_out
    usart_fc.o(.text) refers to memseta.o(.text) for __aeabi_memclr4
    usart_fc.o(.text) refers to usart_fc.o(.data) for feed_imu_dog
    usart_fc.o(.text) refers to leg.o(.bss) for leg
    usart_fc.o(.text) refers to os_core.o(.text) for OSIntEnter
    usart_fc.o(.text) refers to usart_fc.o(.bss) for RxBuffer1
    usart_fc.o(.text) refers to led_fc.o(.text) for LEDRGB_STATE
    usart_fc.o(.text) refers to f2d.o(.text) for __aeabi_f2d
    usart_fc.o(.text) refers to ddiv.o(.text) for __aeabi_ddiv
    usart_fc.o(.text) refers to d2f.o(.text) for __aeabi_d2f
    usart_fc.o(.text) refers to sbus.o(.text) for oldx_sbus_rx
    usart_fc.o(.text) refers to sbus.o(.data) for channels
    usart_fc.o(.text) refers to fabs.o(i.__hardfp_fabs) for __hardfp_fabs
    usart_fc.o(.text) refers to dmul.o(.text) for __aeabi_dmul
    usart_fc.o(.text) refers to dfixi.o(.text) for __aeabi_d2iz
    mpu6050.o(.text) refers to mpu9250.o(.text) for MPU9250_ReadValue
    mpu6050.o(.text) refers to flash.o(.text) for WRITE_PARM
    mpu6050.o(.text) refers to cycle_cal_oldx.o(.text) for cycle_init_oldx
    mpu6050.o(.text) refers to f2d.o(.text) for __aeabi_f2d
    mpu6050.o(.text) refers to fabs.o(i.__hardfp_fabs) for __hardfp_fabs
    mpu6050.o(.text) refers to cdrcmple.o(.text) for __aeabi_cdrcmple
    mpu6050.o(.text) refers to ddiv.o(.text) for __aeabi_ddiv
    mpu6050.o(.text) refers to d2f.o(.text) for __aeabi_d2f
    mpu6050.o(.text) refers to mpu6050.o(.bss) for mpu6050_fc
    mpu6050.o(.text) refers to mpu6050.o(.data) for acc_sum_cnt
    mpu6050.o(.text) refers to imu.o(.data) for Pitch
    mpu6050.o(.text) refers to cycle_cal_oldx.o(.bss) for hml_lsq
    mpu6050.o(.text) refers to memseta.o(.text) for __aeabi_memclr4
    mpu6050.o(.text) refers to mpu9250.o(.data) for rawAccel
    mpu9250.o(.text) refers to spi_nrf.o(.text) for Spi_RW
    mpu9250.o(.text) refers to time.o(.text) for Delay_us
    mpu9250.o(.text) refers to mpu9250.o(.data) for rawAccel
    hml5833l.o(.text) refers to flash.o(.text) for WRITE_PARM
    hml5833l.o(.text) refers to dflti.o(.text) for __aeabi_i2d
    hml5833l.o(.text) refers to fliter.o(.text) for IIR_I_Filter
    hml5833l.o(.text) refers to dfixi.o(.text) for __aeabi_d2iz
    hml5833l.o(.text) refers to hml5833l.o(.data) for state_cal_hml
    hml5833l.o(.text) refers to hml5833l.o(.bss) for MagSum
    hml5833l.o(.text) refers to mpu9250.o(.data) for rawMag
    imu.o(.text) refers to f2d.o(.text) for __aeabi_f2d
    imu.o(.text) refers to sqrt.o(i.__hardfp_sqrt) for __hardfp_sqrt
    imu.o(.text) refers to d2f.o(.text) for __aeabi_d2f
    imu.o(.text) refers to imu.o(.data) for q0
    imu.o(.text) refers to asin.o(i.__hardfp_asin) for __hardfp_asin
    imu.o(.text) refers to dmul.o(.text) for __aeabi_dmul
    imu.o(.text) refers to atan2.o(i.__hardfp_atan2) for __hardfp_atan2
    imu.o(.text) refers to my_math.o(.text) for my_sqrt
    imu.o(.text) refers to hml5833l.o(.data) for ak8975
    imu.o(.text) refers to fliter.o(.text) for simple_3d_trans
    imu.o(.text) refers to imu.o(.bss) for mag_tmp
    imu.o(.text) refers to ddiv.o(.text) for __aeabi_ddiv
    imu.o(.text) refers to fabs.o(i.__hardfp_fabs) for __hardfp_fabs
    old_x_avoid_n.o(.text) refers to cdrcmple.o(.text) for __aeabi_cdrcmple
    old_x_avoid_n.o(.text) refers to dflti.o(.text) for __aeabi_i2d
    old_x_avoid_n.o(.text) refers to dfixi.o(.text) for __aeabi_d2iz
    old_x_avoid_n.o(.text) refers to dadd.o(.text) for __aeabi_dsub
    old_x_avoid_n.o(.text) refers to dmul.o(.text) for __aeabi_dmul
    old_x_avoid_n.o(.text) refers to ddiv.o(.text) for __aeabi_ddiv
    old_x_avoid_n.o(.text) refers to sqrt.o(i.__hardfp_sqrt) for __hardfp_sqrt
    old_x_avoid_n.o(.text) refers to cdcmple.o(.text) for __aeabi_cdcmpeq
    old_x_avoid_n.o(.text) refers to rt_nonfinite.o(.text) for rt_InitInfAndNaN
    rt_nonfinite.o(.text) refers to rtgetnan.o(.text) for rtGetNaN
    rt_nonfinite.o(.text) refers to rtgetinf.o(.text) for rtGetInf
    rt_nonfinite.o(.text) refers to cdcmple.o(.text) for __aeabi_cdcmpeq
    rt_nonfinite.o(.text) refers to rt_nonfinite.o(.data) for rtNaN
    rtgetinf.o(.text) refers to f2d.o(.text) for __aeabi_f2d
    rtgetnan.o(.text) refers to f2d.o(.text) for __aeabi_f2d
    leg_lib.o(.text) refers to f2d.o(.text) for __aeabi_f2d
    leg_lib.o(.text) refers to pow.o(i.__hardfp_pow) for __hardfp_pow
    leg_lib.o(.text) refers to dadd.o(.text) for __aeabi_dadd
    leg_lib.o(.text) refers to sqrt.o(i.__hardfp_sqrt) for __hardfp_sqrt
    leg_lib.o(.text) refers to d2f.o(.text) for __aeabi_d2f
    leg_lib.o(.text) refers to my_math.o(.text) for To_180_degrees
    leg_lib.o(.text) refers to leg.o(.bss) for leg
    leg_lib.o(.text) refers to brain_g.o(.data) for trig_list_f
    leg_lib.o(.text) refers to tan.o(i.__hardfp_tan) for __hardfp_tan
    leg_lib.o(.text) refers to ddiv.o(.text) for __aeabi_ddiv
    leg_lib.o(.text) refers to sin.o(i.__hardfp_sin) for __hardfp_sin
    leg_lib.o(.text) refers to dmul.o(.text) for __aeabi_dmul
    leg_lib.o(.text) refers to cos.o(i.__hardfp_cos) for __hardfp_cos
    leg_lib.o(.text) refers to cdcmple.o(.text) for __aeabi_cdcmple
    leg_lib.o(.text) refers to cdrcmple.o(.text) for __aeabi_cdrcmple
    leg_lib.o(.text) refers to memseta.o(.text) for __aeabi_memclr4
    leg_lib.o(.text) refers to fabs.o(i.__hardfp_fabs) for __hardfp_fabs
    leg_lib.o(.text) refers to leg_lib.o(.constdata) for .constdata
    leg_lib.o(.text) refers to leg_lib.o(.bss) for Temp
    leg_lib.o(.text) refers to leg_lib.o(.data) for S_Box
    leg_lib.o(.data) refers to leg_lib.o(.bss) for KeyBit
    leg.o(.text) refers to f2d.o(.text) for __aeabi_f2d
    leg.o(.text) refers to dmul.o(.text) for __aeabi_dmul
    leg.o(.text) refers to d2f.o(.text) for __aeabi_d2f
    leg.o(.text) refers to sin.o(i.__hardfp_sin) for __hardfp_sin
    leg.o(.text) refers to leg.o(.data) for init
    leg.o(.text) refers to leg.o(.constdata) for .constdata
    leg.o(.text) refers to cos.o(i.__hardfp_cos) for __hardfp_cos
    leg.o(.text) refers to dadd.o(.text) for __aeabi_dadd
    leg.o(.text) refers to sqrt.o(i.__hardfp_sqrt) for __hardfp_sqrt
    leg.o(.text) refers to atan2.o(i.__hardfp_atan2) for __hardfp_atan2
    leg.o(.text) refers to ddiv.o(.text) for __aeabi_ddiv
    leg.o(.text) refers to acos.o(i.__hardfp_acos) for __hardfp_acos
    leg.o(.text) refers to atan.o(i.__hardfp_atan) for __hardfp_atan
    leg.o(.text) refers to leg_lib.o(.text) for arrow_check_to_bow
    leg.o(.text) refers to my_math.o(.text) for fast_atan2
    leg.o(.text) refers to cdcmple.o(.text) for __aeabi_cdcmple
    leg.o(.text) refers to cdrcmple.o(.text) for __aeabi_cdrcmple
    leg.o(.text) refers to leg.o(.bss) for sita_reg
    leg.o(.text) refers to pow.o(i.__hardfp_pow) for __hardfp_pow
    leg.o(.text) refers to tan.o(i.__hardfp_tan) for __hardfp_tan
    leg.o(.text) refers to fabs.o(i.__hardfp_fabs) for __hardfp_fabs
    leg.o(.text) refers to brain_g.o(.data) for center_control_out
    leg.o(.text) refers to usart_fc.o(.bss) for tinker
    leg.o(.text) refers to rng.o(.text) for RNG_Get_RandomRange
    brain.o(.text) refers to my_math.o(.text) for fast_atan2
    brain.o(.text) refers to f2d.o(.text) for __aeabi_f2d
    brain.o(.text) refers to dmul.o(.text) for __aeabi_dmul
    brain.o(.text) refers to d2f.o(.text) for __aeabi_d2f
    brain.o(.text) refers to sin.o(i.__hardfp_sin) for __hardfp_sin
    brain.o(.text) refers to ddiv.o(.text) for __aeabi_ddiv
    brain.o(.text) refers to cdcmple.o(.text) for __aeabi_cdcmple
    brain.o(.text) refers to leg.o(.bss) for leg
    brain.o(.text) refers to fabs.o(i.__hardfp_fabs) for __hardfp_fabs
    brain.o(.text) refers to dadd.o(.text) for __aeabi_dsub
    brain.o(.text) refers to brain.o(.data) for state
    brain.o(.text) refers to mpu6050.o(.bss) for mpu6050_fc
    brain.o(.text) refers to dfltui.o(.text) for __aeabi_ui2d
    brain.o(.text) refers to cdrcmple.o(.text) for __aeabi_cdrcmple
    brain.o(.text) refers to rng.o(.text) for RNG_Get_RandomRange
    brain.o(.text) refers to brain.o(.bss) for att_control_out
    brain.o(.text) refers to cos.o(i.__hardfp_cos) for __hardfp_cos
    brain.o(.text) refers to leg_lib.o(.text) for line_function_from_two_point
    brain.o(.text) refers to pow.o(i.__hardfp_pow) for __hardfp_pow
    brain.o(.text) refers to sqrt.o(i.__hardfp_sqrt) for __hardfp_sqrt
    brain.o(.text) refers to brain_g.o(.data) for center_control_out
    brain.o(.text) refers to brain.o(.constdata) for .constdata
    brain.o(.text) refers to time.o(.text) for Get_Cycle_T
    brain.o(.text) refers to memcpya.o(.text) for __aeabi_memcpy4
    brain.o(.text) refers to imu.o(.data) for Pitch
    brain.o(.text) refers to brain_g.o(.text) for state_clear
    brain_g.o(.text) refers to leg_lib.o(.text) for check_leg_near_init
    brain_g.o(.text) refers to memcpya.o(.text) for __aeabi_memcpy4
    brain_g.o(.text) refers to f2d.o(.text) for __aeabi_f2d
    brain_g.o(.text) refers to ddiv.o(.text) for __aeabi_ddiv
    brain_g.o(.text) refers to d2f.o(.text) for __aeabi_d2f
    brain_g.o(.text) refers to dmul.o(.text) for __aeabi_dmul
    brain_g.o(.text) refers to dadd.o(.text) for __aeabi_dadd
    brain_g.o(.text) refers to my_math.o(.text) for my_deathzoom
    brain_g.o(.text) refers to leg.o(.bss) for brain
    brain_g.o(.text) refers to brain_g.o(.constdata) for .constdata
    brain_g.o(.text) refers to brain_g.o(.data) for flag_acc
    brain_g.o(.text) refers to cdcmple.o(.text) for __aeabi_cdcmple
    brain_g.o(.text) refers to cdrcmple.o(.text) for __aeabi_cdrcmple
    brain_g.o(.text) refers to fabs.o(i.__hardfp_fabs) for __hardfp_fabs
    brain_g.o(.text) refers to mpu6050.o(.bss) for mpu6050_fc
    brain_g.o(.text) refers to brain_g.o(.bss) for control_draw
    brain_g.o(.text) refers to cos.o(i.__hardfp_cos) for __hardfp_cos
    brain_g.o(.text) refers to sin.o(i.__hardfp_sin) for __hardfp_sin
    brain_g.o(.text) refers to pow.o(i.__hardfp_pow) for __hardfp_pow
    brain_g.o(.text) refers to sqrt.o(i.__hardfp_sqrt) for __hardfp_sqrt
    brain_g.o(.text) refers to dfltui.o(.text) for __aeabi_ui2d
    brain_g.o(.text) refers to rng.o(.text) for RNG_Get_RandomRange
    brain_g.o(.text) refers to memseta.o(.text) for __aeabi_memclr4
    fliter.o(.text) refers to dmul.o(.text) for __aeabi_dmul
    fliter.o(.text) refers to dadd.o(.text) for __aeabi_dadd
    fliter.o(.text) refers to ddiv.o(.text) for __aeabi_ddiv
    fliter.o(.text) refers to my_math.o(.text) for my_pow
    fliter.o(.text) refers to fliter.o(.bss) for med_fil_cnt
    fliter.o(.text) refers to fliter.o(.data) for h_tmp_x
    my_math.o(.text) refers to cdcmple.o(.text) for __aeabi_cdcmple
    my_math.o(.text) refers to dmul.o(.text) for __aeabi_dmul
    my_math.o(.text) refers to dadd.o(.text) for __aeabi_dadd
    my_math.o(.text) refers to cdrcmple.o(.text) for __aeabi_cdrcmple
    my_math.o(.text) refers to dflti.o(.text) for __aeabi_i2d
    my_math.o(.text) refers to d2f.o(.text) for __aeabi_d2f
    my_math.o(.text) refers to my_math.o(.data) for fast_atan_table
    sbus.o(.text) refers to sbus.o(.data) for sbus_data
    cycle_cal_oldx.o(.text) refers to f2d.o(.text) for __aeabi_f2d
    cycle_cal_oldx.o(.text) refers to sqrt.o(i.__hardfp_sqrt) for __hardfp_sqrt
    cycle_cal_oldx.o(.text) refers to d2f.o(.text) for __aeabi_d2f
    cycle_cal_oldx.o(.text) refers to fabs.o(i.__hardfp_fabs) for __hardfp_fabs
    acos.o(i.__hardfp_acos) refers (Special) to iusefp.o(.text) for __I$use$fp
    acos.o(i.__hardfp_acos) refers to dunder.o(i.__mathlib_dbl_infnan) for __mathlib_dbl_infnan
    acos.o(i.__hardfp_acos) refers to errno.o(i.__set_errno) for __set_errno
    acos.o(i.__hardfp_acos) refers to dunder.o(i.__mathlib_dbl_invalid) for __mathlib_dbl_invalid
    acos.o(i.__hardfp_acos) refers to dmul.o(.text) for __aeabi_dmul
    acos.o(i.__hardfp_acos) refers to poly.o(i.__kernel_poly) for __kernel_poly
    acos.o(i.__hardfp_acos) refers to dadd.o(.text) for __aeabi_dadd
    acos.o(i.__hardfp_acos) refers to ddiv.o(.text) for __aeabi_ddiv
    acos.o(i.__hardfp_acos) refers to sqrt.o(i.sqrt) for sqrt
    acos.o(i.__hardfp_acos) refers to acos.o(.constdata) for .constdata
    acos.o(i.__softfp_acos) refers (Special) to iusefp.o(.text) for __I$use$fp
    acos.o(i.__softfp_acos) refers to acos.o(i.__hardfp_acos) for __hardfp_acos
    acos.o(i.acos) refers (Special) to iusefp.o(.text) for __I$use$fp
    acos.o(i.acos) refers to acos.o(i.__hardfp_acos) for __hardfp_acos
    acos.o(.constdata) refers (Special) to iusefp.o(.text) for __I$use$fp
    acos_x.o(i.____hardfp_acos$lsc) refers (Special) to iusefp.o(.text) for __I$use$fp
    acos_x.o(i.____hardfp_acos$lsc) refers to dunder.o(i.__mathlib_dbl_infnan) for __mathlib_dbl_infnan
    acos_x.o(i.____hardfp_acos$lsc) refers to errno.o(i.__set_errno) for __set_errno
    acos_x.o(i.____hardfp_acos$lsc) refers to dmul.o(.text) for __aeabi_dmul
    acos_x.o(i.____hardfp_acos$lsc) refers to poly.o(i.__kernel_poly) for __kernel_poly
    acos_x.o(i.____hardfp_acos$lsc) refers to dadd.o(.text) for __aeabi_dadd
    acos_x.o(i.____hardfp_acos$lsc) refers to ddiv.o(.text) for __aeabi_ddiv
    acos_x.o(i.____hardfp_acos$lsc) refers to sqrt.o(i.sqrt) for sqrt
    acos_x.o(i.____hardfp_acos$lsc) refers to acos_x.o(.constdata) for .constdata
    acos_x.o(i.____softfp_acos$lsc) refers (Special) to iusefp.o(.text) for __I$use$fp
    acos_x.o(i.____softfp_acos$lsc) refers to acos_x.o(i.____hardfp_acos$lsc) for ____hardfp_acos$lsc
    acos_x.o(i.__acos$lsc) refers (Special) to iusefp.o(.text) for __I$use$fp
    acos_x.o(i.__acos$lsc) refers to acos_x.o(i.____hardfp_acos$lsc) for ____hardfp_acos$lsc
    acos_x.o(.constdata) refers (Special) to iusefp.o(.text) for __I$use$fp
    asin.o(i.__hardfp_asin) refers (Special) to iusefp.o(.text) for __I$use$fp
    asin.o(i.__hardfp_asin) refers to dunder.o(i.__mathlib_dbl_infnan) for __mathlib_dbl_infnan
    asin.o(i.__hardfp_asin) refers to dmul.o(.text) for __aeabi_dmul
    asin.o(i.__hardfp_asin) refers to dadd.o(.text) for __aeabi_dadd
    asin.o(i.__hardfp_asin) refers to errno.o(i.__set_errno) for __set_errno
    asin.o(i.__hardfp_asin) refers to dunder.o(i.__mathlib_dbl_invalid) for __mathlib_dbl_invalid
    asin.o(i.__hardfp_asin) refers to fpclassify.o(i.__ARM_fpclassify) for __ARM_fpclassify
    asin.o(i.__hardfp_asin) refers to dunder.o(i.__mathlib_dbl_underflow) for __mathlib_dbl_underflow
    asin.o(i.__hardfp_asin) refers to poly.o(i.__kernel_poly) for __kernel_poly
    asin.o(i.__hardfp_asin) refers to ddiv.o(.text) for __aeabi_ddiv
    asin.o(i.__hardfp_asin) refers to fabs.o(i.fabs) for fabs
    asin.o(i.__hardfp_asin) refers to sqrt.o(i.sqrt) for sqrt
    asin.o(i.__hardfp_asin) refers to asin.o(.constdata) for .constdata
    asin.o(i.__softfp_asin) refers (Special) to iusefp.o(.text) for __I$use$fp
    asin.o(i.__softfp_asin) refers to asin.o(i.__hardfp_asin) for __hardfp_asin
    asin.o(i.asin) refers (Special) to iusefp.o(.text) for __I$use$fp
    asin.o(i.asin) refers to asin.o(i.__hardfp_asin) for __hardfp_asin
    asin.o(.constdata) refers (Special) to iusefp.o(.text) for __I$use$fp
    asin_x.o(i.____hardfp_asin$lsc) refers (Special) to iusefp.o(.text) for __I$use$fp
    asin_x.o(i.____hardfp_asin$lsc) refers to dunder.o(i.__mathlib_dbl_infnan) for __mathlib_dbl_infnan
    asin_x.o(i.____hardfp_asin$lsc) refers to dmul.o(.text) for __aeabi_dmul
    asin_x.o(i.____hardfp_asin$lsc) refers to dadd.o(.text) for __aeabi_dadd
    asin_x.o(i.____hardfp_asin$lsc) refers to errno.o(i.__set_errno) for __set_errno
    asin_x.o(i.____hardfp_asin$lsc) refers to poly.o(i.__kernel_poly) for __kernel_poly
    asin_x.o(i.____hardfp_asin$lsc) refers to ddiv.o(.text) for __aeabi_ddiv
    asin_x.o(i.____hardfp_asin$lsc) refers to fabs.o(i.fabs) for fabs
    asin_x.o(i.____hardfp_asin$lsc) refers to sqrt.o(i.sqrt) for sqrt
    asin_x.o(i.____hardfp_asin$lsc) refers to asin_x.o(.constdata) for .constdata
    asin_x.o(i.____softfp_asin$lsc) refers (Special) to iusefp.o(.text) for __I$use$fp
    asin_x.o(i.____softfp_asin$lsc) refers to asin_x.o(i.____hardfp_asin$lsc) for ____hardfp_asin$lsc
    asin_x.o(i.__asin$lsc) refers (Special) to iusefp.o(.text) for __I$use$fp
    asin_x.o(i.__asin$lsc) refers to asin_x.o(i.____hardfp_asin$lsc) for ____hardfp_asin$lsc
    asin_x.o(.constdata) refers (Special) to iusefp.o(.text) for __I$use$fp
    atan.o(i.__hardfp_atan) refers (Special) to iusefp.o(.text) for __I$use$fp
    atan.o(i.__hardfp_atan) refers to dunder.o(i.__mathlib_dbl_infnan) for __mathlib_dbl_infnan
    atan.o(i.__hardfp_atan) refers to fpclassify.o(i.__ARM_fpclassify) for __ARM_fpclassify
    atan.o(i.__hardfp_atan) refers to dunder.o(i.__mathlib_dbl_underflow) for __mathlib_dbl_underflow
    atan.o(i.__hardfp_atan) refers to fabs.o(i.fabs) for fabs
    atan.o(i.__hardfp_atan) refers to dadd.o(.text) for __aeabi_dadd
    atan.o(i.__hardfp_atan) refers to dmul.o(.text) for __aeabi_dmul
    atan.o(i.__hardfp_atan) refers to ddiv.o(.text) for __aeabi_ddiv
    atan.o(i.__hardfp_atan) refers to poly.o(i.__kernel_poly) for __kernel_poly
    atan.o(i.__hardfp_atan) refers to atan.o(.constdata) for .constdata
    atan.o(i.__softfp_atan) refers (Special) to iusefp.o(.text) for __I$use$fp
    atan.o(i.__softfp_atan) refers to atan.o(i.__hardfp_atan) for __hardfp_atan
    atan.o(i.atan) refers (Special) to iusefp.o(.text) for __I$use$fp
    atan.o(i.atan) refers to atan.o(i.__hardfp_atan) for __hardfp_atan
    atan.o(.constdata) refers (Special) to iusefp.o(.text) for __I$use$fp
    atan_x.o(i.____hardfp_atan$lsc) refers (Special) to iusefp.o(.text) for __I$use$fp
    atan_x.o(i.____hardfp_atan$lsc) refers to dunder.o(i.__mathlib_dbl_infnan) for __mathlib_dbl_infnan
    atan_x.o(i.____hardfp_atan$lsc) refers to fabs.o(i.fabs) for fabs
    atan_x.o(i.____hardfp_atan$lsc) refers to dadd.o(.text) for __aeabi_dadd
    atan_x.o(i.____hardfp_atan$lsc) refers to dmul.o(.text) for __aeabi_dmul
    atan_x.o(i.____hardfp_atan$lsc) refers to ddiv.o(.text) for __aeabi_ddiv
    atan_x.o(i.____hardfp_atan$lsc) refers to poly.o(i.__kernel_poly) for __kernel_poly
    atan_x.o(i.____hardfp_atan$lsc) refers to atan_x.o(.constdata) for .constdata
    atan_x.o(i.____softfp_atan$lsc) refers (Special) to iusefp.o(.text) for __I$use$fp
    atan_x.o(i.____softfp_atan$lsc) refers to atan_x.o(i.____hardfp_atan$lsc) for ____hardfp_atan$lsc
    atan_x.o(i.__atan$lsc) refers (Special) to iusefp.o(.text) for __I$use$fp
    atan_x.o(i.__atan$lsc) refers to atan_x.o(i.____hardfp_atan$lsc) for ____hardfp_atan$lsc
    atan_x.o(.constdata) refers (Special) to iusefp.o(.text) for __I$use$fp
    atan2.o(i.__hardfp_atan2) refers (Special) to iusefp.o(.text) for __I$use$fp
    atan2.o(i.__hardfp_atan2) refers to dunder.o(i.__mathlib_dbl_infnan2) for __mathlib_dbl_infnan2
    atan2.o(i.__hardfp_atan2) refers to atan.o(i.atan) for atan
    atan2.o(i.__hardfp_atan2) refers to ddiv.o(.text) for __aeabi_ddiv
    atan2.o(i.__hardfp_atan2) refers to fabs.o(i.fabs) for fabs
    atan2.o(i.__hardfp_atan2) refers to dadd.o(.text) for __aeabi_dsub
    atan2.o(i.__hardfp_atan2) refers to qnan.o(.constdata) for __mathlib_zero
    atan2.o(i.__softfp_atan2) refers (Special) to iusefp.o(.text) for __I$use$fp
    atan2.o(i.__softfp_atan2) refers to atan2.o(i.__hardfp_atan2) for __hardfp_atan2
    atan2.o(i.atan2) refers (Special) to iusefp.o(.text) for __I$use$fp
    atan2.o(i.atan2) refers to atan2.o(i.__hardfp_atan2) for __hardfp_atan2
    atan2_x.o(i.____hardfp_atan2$lsc) refers (Special) to iusefp.o(.text) for __I$use$fp
    atan2_x.o(i.____hardfp_atan2$lsc) refers to dunder.o(i.__mathlib_dbl_infnan2) for __mathlib_dbl_infnan2
    atan2_x.o(i.____hardfp_atan2$lsc) refers to atan.o(i.atan) for atan
    atan2_x.o(i.____hardfp_atan2$lsc) refers to errno.o(i.__set_errno) for __set_errno
    atan2_x.o(i.____hardfp_atan2$lsc) refers to ddiv.o(.text) for __aeabi_ddiv
    atan2_x.o(i.____hardfp_atan2$lsc) refers to fabs.o(i.fabs) for fabs
    atan2_x.o(i.____hardfp_atan2$lsc) refers to dadd.o(.text) for __aeabi_dsub
    atan2_x.o(i.____hardfp_atan2$lsc) refers to qnan.o(.constdata) for __mathlib_zero
    atan2_x.o(i.____softfp_atan2$lsc) refers (Special) to iusefp.o(.text) for __I$use$fp
    atan2_x.o(i.____softfp_atan2$lsc) refers to atan2_x.o(i.____hardfp_atan2$lsc) for ____hardfp_atan2$lsc
    atan2_x.o(i.__atan2$lsc) refers (Special) to iusefp.o(.text) for __I$use$fp
    atan2_x.o(i.__atan2$lsc) refers to atan2_x.o(i.____hardfp_atan2$lsc) for ____hardfp_atan2$lsc
    cos.o(i.__hardfp_cos) refers (Special) to iusefp.o(.text) for __I$use$fp
    cos.o(i.__hardfp_cos) refers to errno.o(i.__set_errno) for __set_errno
    cos.o(i.__hardfp_cos) refers to dunder.o(i.__mathlib_dbl_invalid) for __mathlib_dbl_invalid
    cos.o(i.__hardfp_cos) refers to dunder.o(i.__mathlib_dbl_infnan) for __mathlib_dbl_infnan
    cos.o(i.__hardfp_cos) refers to rred.o(i.__ieee754_rem_pio2) for __ieee754_rem_pio2
    cos.o(i.__hardfp_cos) refers to sin_i.o(i.__kernel_sin) for __kernel_sin
    cos.o(i.__hardfp_cos) refers to cos_i.o(i.__kernel_cos) for __kernel_cos
    cos.o(i.__softfp_cos) refers (Special) to iusefp.o(.text) for __I$use$fp
    cos.o(i.__softfp_cos) refers to cos.o(i.__hardfp_cos) for __hardfp_cos
    cos.o(i.cos) refers (Special) to iusefp.o(.text) for __I$use$fp
    cos.o(i.cos) refers to cos.o(i.__hardfp_cos) for __hardfp_cos
    cos_x.o(i.____hardfp_cos$lsc) refers (Special) to iusefp.o(.text) for __I$use$fp
    cos_x.o(i.____hardfp_cos$lsc) refers to errno.o(i.__set_errno) for __set_errno
    cos_x.o(i.____hardfp_cos$lsc) refers to dunder.o(i.__mathlib_dbl_infnan) for __mathlib_dbl_infnan
    cos_x.o(i.____hardfp_cos$lsc) refers to rred.o(i.__ieee754_rem_pio2) for __ieee754_rem_pio2
    cos_x.o(i.____hardfp_cos$lsc) refers to sin_i.o(i.__kernel_sin) for __kernel_sin
    cos_x.o(i.____hardfp_cos$lsc) refers to cos_i.o(i.__kernel_cos) for __kernel_cos
    cos_x.o(i.____softfp_cos$lsc) refers (Special) to iusefp.o(.text) for __I$use$fp
    cos_x.o(i.____softfp_cos$lsc) refers to cos_x.o(i.____hardfp_cos$lsc) for ____hardfp_cos$lsc
    cos_x.o(i.__cos$lsc) refers (Special) to iusefp.o(.text) for __I$use$fp
    cos_x.o(i.__cos$lsc) refers to cos_x.o(i.____hardfp_cos$lsc) for ____hardfp_cos$lsc
    fabs.o(i.__hardfp_fabs) refers (Special) to iusefp.o(.text) for __I$use$fp
    fabs.o(i.__softfp_fabs) refers (Special) to iusefp.o(.text) for __I$use$fp
    fabs.o(i.fabs) refers (Special) to iusefp.o(.text) for __I$use$fp
    pow.o(i.__hardfp_pow) refers (Special) to iusefp.o(.text) for __I$use$fp
    pow.o(i.__hardfp_pow) refers to dunder.o(i.__mathlib_dbl_infnan2) for __mathlib_dbl_infnan2
    pow.o(i.__hardfp_pow) refers to errno.o(i.__set_errno) for __set_errno
    pow.o(i.__hardfp_pow) refers to dunder.o(i.__mathlib_dbl_divzero) for __mathlib_dbl_divzero
    pow.o(i.__hardfp_pow) refers to dunder.o(i.__mathlib_dbl_overflow) for __mathlib_dbl_overflow
    pow.o(i.__hardfp_pow) refers to ddiv.o(.text) for __aeabi_ddiv
    pow.o(i.__hardfp_pow) refers to sqrt.o(i.sqrt) for sqrt
    pow.o(i.__hardfp_pow) refers to fabs.o(i.fabs) for fabs
    pow.o(i.__hardfp_pow) refers to dflti.o(.text) for __aeabi_i2d
    pow.o(i.__hardfp_pow) refers to dunder.o(i.__mathlib_dbl_invalid) for __mathlib_dbl_invalid
    pow.o(i.__hardfp_pow) refers to dmul.o(.text) for __aeabi_dmul
    pow.o(i.__hardfp_pow) refers to dunder.o(i.__mathlib_dbl_underflow) for __mathlib_dbl_underflow
    pow.o(i.__hardfp_pow) refers to dadd.o(.text) for __aeabi_dsub
    pow.o(i.__hardfp_pow) refers to qnan.o(.constdata) for __mathlib_zero
    pow.o(i.__hardfp_pow) refers to poly.o(i.__kernel_poly) for __kernel_poly
    pow.o(i.__hardfp_pow) refers to pow.o(.constdata) for .constdata
    pow.o(i.__hardfp_pow) refers to cdrcmple.o(.text) for __aeabi_cdrcmple
    pow.o(i.__hardfp_pow) refers to dscalb.o(.text) for __ARM_scalbn
    pow.o(i.__hardfp_pow) refers to fpclassify.o(i.__ARM_fpclassify) for __ARM_fpclassify
    pow.o(i.__softfp_pow) refers (Special) to iusefp.o(.text) for __I$use$fp
    pow.o(i.__softfp_pow) refers to pow.o(i.__hardfp_pow) for __hardfp_pow
    pow.o(i.pow) refers (Special) to iusefp.o(.text) for __I$use$fp
    pow.o(i.pow) refers to pow.o(i.__hardfp_pow) for __hardfp_pow
    pow.o(.constdata) refers (Special) to iusefp.o(.text) for __I$use$fp
    pow_x.o(i.____hardfp_pow$lsc) refers (Special) to iusefp.o(.text) for __I$use$fp
    pow_x.o(i.____hardfp_pow$lsc) refers to dunder.o(i.__mathlib_dbl_infnan2) for __mathlib_dbl_infnan2
    pow_x.o(i.____hardfp_pow$lsc) refers to errno.o(i.__set_errno) for __set_errno
    pow_x.o(i.____hardfp_pow$lsc) refers to ddiv.o(.text) for __aeabi_ddiv
    pow_x.o(i.____hardfp_pow$lsc) refers to sqrt.o(i.sqrt) for sqrt
    pow_x.o(i.____hardfp_pow$lsc) refers to fabs.o(i.fabs) for fabs
    pow_x.o(i.____hardfp_pow$lsc) refers to dflti.o(.text) for __aeabi_i2d
    pow_x.o(i.____hardfp_pow$lsc) refers to dmul.o(.text) for __aeabi_dmul
    pow_x.o(i.____hardfp_pow$lsc) refers to dadd.o(.text) for __aeabi_dsub
    pow_x.o(i.____hardfp_pow$lsc) refers to qnan.o(.constdata) for __mathlib_zero
    pow_x.o(i.____hardfp_pow$lsc) refers to poly.o(i.__kernel_poly) for __kernel_poly
    pow_x.o(i.____hardfp_pow$lsc) refers to pow_x.o(.constdata) for .constdata
    pow_x.o(i.____hardfp_pow$lsc) refers to cdrcmple.o(.text) for __aeabi_cdrcmple
    pow_x.o(i.____hardfp_pow$lsc) refers to dscalb.o(.text) for __ARM_scalbn
    pow_x.o(i.____softfp_pow$lsc) refers (Special) to iusefp.o(.text) for __I$use$fp
    pow_x.o(i.____softfp_pow$lsc) refers to pow_x.o(i.____hardfp_pow$lsc) for ____hardfp_pow$lsc
    pow_x.o(i.__pow$lsc) refers (Special) to iusefp.o(.text) for __I$use$fp
    pow_x.o(i.__pow$lsc) refers to pow_x.o(i.____hardfp_pow$lsc) for ____hardfp_pow$lsc
    pow_x.o(.constdata) refers (Special) to iusefp.o(.text) for __I$use$fp
    sin.o(i.__hardfp_sin) refers (Special) to iusefp.o(.text) for __I$use$fp
    sin.o(i.__hardfp_sin) refers to errno.o(i.__set_errno) for __set_errno
    sin.o(i.__hardfp_sin) refers to dunder.o(i.__mathlib_dbl_invalid) for __mathlib_dbl_invalid
    sin.o(i.__hardfp_sin) refers to dunder.o(i.__mathlib_dbl_infnan) for __mathlib_dbl_infnan
    sin.o(i.__hardfp_sin) refers to rred.o(i.__ieee754_rem_pio2) for __ieee754_rem_pio2
    sin.o(i.__hardfp_sin) refers to cos_i.o(i.__kernel_cos) for __kernel_cos
    sin.o(i.__hardfp_sin) refers to sin_i.o(i.__kernel_sin) for __kernel_sin
    sin.o(i.__softfp_sin) refers (Special) to iusefp.o(.text) for __I$use$fp
    sin.o(i.__softfp_sin) refers to sin.o(i.__hardfp_sin) for __hardfp_sin
    sin.o(i.sin) refers (Special) to iusefp.o(.text) for __I$use$fp
    sin.o(i.sin) refers to sin.o(i.__hardfp_sin) for __hardfp_sin
    sin_x.o(i.____hardfp_sin$lsc) refers (Special) to iusefp.o(.text) for __I$use$fp
    sin_x.o(i.____hardfp_sin$lsc) refers to errno.o(i.__set_errno) for __set_errno
    sin_x.o(i.____hardfp_sin$lsc) refers to dunder.o(i.__mathlib_dbl_infnan) for __mathlib_dbl_infnan
    sin_x.o(i.____hardfp_sin$lsc) refers to rred.o(i.__ieee754_rem_pio2) for __ieee754_rem_pio2
    sin_x.o(i.____hardfp_sin$lsc) refers to cos_i.o(i.__kernel_cos) for __kernel_cos
    sin_x.o(i.____hardfp_sin$lsc) refers to sin_i.o(i.__kernel_sin) for __kernel_sin
    sin_x.o(i.____softfp_sin$lsc) refers (Special) to iusefp.o(.text) for __I$use$fp
    sin_x.o(i.____softfp_sin$lsc) refers to sin_x.o(i.____hardfp_sin$lsc) for ____hardfp_sin$lsc
    sin_x.o(i.__sin$lsc) refers (Special) to iusefp.o(.text) for __I$use$fp
    sin_x.o(i.__sin$lsc) refers to sin_x.o(i.____hardfp_sin$lsc) for ____hardfp_sin$lsc
    sqrt.o(i.__hardfp_sqrt) refers (Special) to iusefp.o(.text) for __I$use$fp
    sqrt.o(i.__hardfp_sqrt) refers to dsqrt.o(.text) for _dsqrt
    sqrt.o(i.__hardfp_sqrt) refers to errno.o(i.__set_errno) for __set_errno
    sqrt.o(i.__softfp_sqrt) refers (Special) to iusefp.o(.text) for __I$use$fp
    sqrt.o(i.__softfp_sqrt) refers to dsqrt.o(.text) for _dsqrt
    sqrt.o(i.__softfp_sqrt) refers to errno.o(i.__set_errno) for __set_errno
    sqrt.o(i.sqrt) refers (Special) to iusefp.o(.text) for __I$use$fp
    sqrt.o(i.sqrt) refers to dsqrt.o(.text) for _dsqrt
    sqrt.o(i.sqrt) refers to errno.o(i.__set_errno) for __set_errno
    sqrt_x.o(i.____hardfp_sqrt$lsc) refers (Special) to iusefp.o(.text) for __I$use$fp
    sqrt_x.o(i.____hardfp_sqrt$lsc) refers to cdcmple.o(.text) for __aeabi_cdcmple
    sqrt_x.o(i.____hardfp_sqrt$lsc) refers to errno.o(i.__set_errno) for __set_errno
    sqrt_x.o(i.____hardfp_sqrt$lsc) refers to dsqrt.o(.text) for _dsqrt
    sqrt_x.o(i.____softfp_sqrt$lsc) refers (Special) to iusefp.o(.text) for __I$use$fp
    sqrt_x.o(i.____softfp_sqrt$lsc) refers to cdcmple.o(.text) for __aeabi_cdcmple
    sqrt_x.o(i.____softfp_sqrt$lsc) refers to errno.o(i.__set_errno) for __set_errno
    sqrt_x.o(i.____softfp_sqrt$lsc) refers to dsqrt.o(.text) for _dsqrt
    sqrt_x.o(i.__sqrt$lsc) refers (Special) to iusefp.o(.text) for __I$use$fp
    sqrt_x.o(i.__sqrt$lsc) refers to cdcmple.o(.text) for __aeabi_cdcmple
    sqrt_x.o(i.__sqrt$lsc) refers to errno.o(i.__set_errno) for __set_errno
    sqrt_x.o(i.__sqrt$lsc) refers to dsqrt.o(.text) for _dsqrt
    tan.o(i.__hardfp_tan) refers (Special) to iusefp.o(.text) for __I$use$fp
    tan.o(i.__hardfp_tan) refers to errno.o(i.__set_errno) for __set_errno
    tan.o(i.__hardfp_tan) refers to dunder.o(i.__mathlib_dbl_invalid) for __mathlib_dbl_invalid
    tan.o(i.__hardfp_tan) refers to dunder.o(i.__mathlib_dbl_infnan) for __mathlib_dbl_infnan
    tan.o(i.__hardfp_tan) refers to rred.o(i.__ieee754_rem_pio2) for __ieee754_rem_pio2
    tan.o(i.__hardfp_tan) refers to tan_i.o(i.__kernel_tan) for __kernel_tan
    tan.o(i.__softfp_tan) refers (Special) to iusefp.o(.text) for __I$use$fp
    tan.o(i.__softfp_tan) refers to errno.o(i.__set_errno) for __set_errno
    tan.o(i.__softfp_tan) refers to dunder.o(i.__mathlib_dbl_invalid) for __mathlib_dbl_invalid
    tan.o(i.__softfp_tan) refers to dunder.o(i.__mathlib_dbl_infnan) for __mathlib_dbl_infnan
    tan.o(i.__softfp_tan) refers to rred.o(i.__ieee754_rem_pio2) for __ieee754_rem_pio2
    tan.o(i.__softfp_tan) refers to tan_i.o(i.__kernel_tan) for __kernel_tan
    tan.o(i.tan) refers (Special) to iusefp.o(.text) for __I$use$fp
    tan.o(i.tan) refers to errno.o(i.__set_errno) for __set_errno
    tan.o(i.tan) refers to dunder.o(i.__mathlib_dbl_invalid) for __mathlib_dbl_invalid
    tan.o(i.tan) refers to dunder.o(i.__mathlib_dbl_infnan) for __mathlib_dbl_infnan
    tan.o(i.tan) refers to rred.o(i.__ieee754_rem_pio2) for __ieee754_rem_pio2
    tan.o(i.tan) refers to tan_i.o(i.__kernel_tan) for __kernel_tan
    tan_x.o(i.____hardfp_tan$lsc) refers (Special) to iusefp.o(.text) for __I$use$fp
    tan_x.o(i.____hardfp_tan$lsc) refers to errno.o(i.__set_errno) for __set_errno
    tan_x.o(i.____hardfp_tan$lsc) refers to dunder.o(i.__mathlib_dbl_infnan) for __mathlib_dbl_infnan
    tan_x.o(i.____hardfp_tan$lsc) refers to rred.o(i.__ieee754_rem_pio2) for __ieee754_rem_pio2
    tan_x.o(i.____hardfp_tan$lsc) refers to tan_i.o(i.__kernel_tan) for __kernel_tan
    tan_x.o(i.____softfp_tan$lsc) refers (Special) to iusefp.o(.text) for __I$use$fp
    tan_x.o(i.____softfp_tan$lsc) refers to errno.o(i.__set_errno) for __set_errno
    tan_x.o(i.____softfp_tan$lsc) refers to dunder.o(i.__mathlib_dbl_infnan) for __mathlib_dbl_infnan
    tan_x.o(i.____softfp_tan$lsc) refers to rred.o(i.__ieee754_rem_pio2) for __ieee754_rem_pio2
    tan_x.o(i.____softfp_tan$lsc) refers to tan_i.o(i.__kernel_tan) for __kernel_tan
    tan_x.o(i.__tan$lsc) refers (Special) to iusefp.o(.text) for __I$use$fp
    tan_x.o(i.__tan$lsc) refers to errno.o(i.__set_errno) for __set_errno
    tan_x.o(i.__tan$lsc) refers to dunder.o(i.__mathlib_dbl_infnan) for __mathlib_dbl_infnan
    tan_x.o(i.__tan$lsc) refers to rred.o(i.__ieee754_rem_pio2) for __ieee754_rem_pio2
    tan_x.o(i.__tan$lsc) refers to tan_i.o(i.__kernel_tan) for __kernel_tan
    entry.o(.ARM.Collect$$$$00000000) refers (Special) to entry10a.o(.ARM.Collect$$$$0000000D) for __rt_final_cpp
    entry.o(.ARM.Collect$$$$00000000) refers (Special) to entry11a.o(.ARM.Collect$$$$0000000F) for __rt_final_exit
    entry.o(.ARM.Collect$$$$00000000) refers (Special) to entry7b.o(.ARM.Collect$$$$00000008) for _main_clock
    entry.o(.ARM.Collect$$$$00000000) refers (Special) to entry8b.o(.ARM.Collect$$$$0000000A) for _main_cpp_init
    entry.o(.ARM.Collect$$$$00000000) refers (Special) to entry9a.o(.ARM.Collect$$$$0000000B) for _main_init
    entry.o(.ARM.Collect$$$$00000000) refers (Special) to entry5.o(.ARM.Collect$$$$00000004) for _main_scatterload
    entry.o(.ARM.Collect$$$$00000000) refers (Special) to entry2.o(.ARM.Collect$$$$00000001) for _main_stk
    dadd.o(.text) refers (Special) to iusefp.o(.text) for __I$use$fp
    dadd.o(.text) refers to llshl.o(.text) for __aeabi_llsl
    dadd.o(.text) refers to llsshr.o(.text) for __aeabi_lasr
    dadd.o(.text) refers to depilogue.o(.text) for _double_epilogue
    dmul.o(.text) refers (Special) to iusefp.o(.text) for __I$use$fp
    dmul.o(.text) refers to depilogue.o(.text) for _double_epilogue
    ddiv.o(.text) refers (Special) to iusefp.o(.text) for __I$use$fp
    ddiv.o(.text) refers to depilogue.o(.text) for _double_round
    dneg.o(.text) refers (Special) to iusefp.o(.text) for __I$use$fp
    dflti.o(.text) refers (Special) to iusefp.o(.text) for __I$use$fp
    dflti.o(.text) refers to depilogue.o(.text) for _double_epilogue
    dfltui.o(.text) refers (Special) to iusefp.o(.text) for __I$use$fp
    dfltui.o(.text) refers to depilogue.o(.text) for _double_epilogue
    dfixi.o(.text) refers (Special) to iusefp.o(.text) for __I$use$fp
    dfixi.o(.text) refers to llushr.o(.text) for __aeabi_llsr
    f2d.o(.text) refers (Special) to iusefp.o(.text) for __I$use$fp
    cdcmple.o(.text) refers (Special) to iusefp.o(.text) for __I$use$fp
    cdrcmple.o(.text) refers (Special) to iusefp.o(.text) for __I$use$fp
    d2f.o(.text) refers (Special) to iusefp.o(.text) for __I$use$fp
    d2f.o(.text) refers to fepilogue.o(.text) for _float_round
    cos_i.o(i.__kernel_cos) refers (Special) to iusefp.o(.text) for __I$use$fp
    cos_i.o(i.__kernel_cos) refers to dfixi.o(.text) for __aeabi_d2iz
    cos_i.o(i.__kernel_cos) refers to dmul.o(.text) for __aeabi_dmul
    cos_i.o(i.__kernel_cos) refers to poly.o(i.__kernel_poly) for __kernel_poly
    cos_i.o(i.__kernel_cos) refers to dadd.o(.text) for __aeabi_dsub
    cos_i.o(i.__kernel_cos) refers to cos_i.o(.constdata) for .constdata
    cos_i.o(.constdata) refers (Special) to iusefp.o(.text) for __I$use$fp
    dunder.o(i.__mathlib_dbl_divzero) refers to ddiv.o(.text) for __aeabi_ddiv
    dunder.o(i.__mathlib_dbl_infnan) refers to dadd.o(.text) for __aeabi_dadd
    dunder.o(i.__mathlib_dbl_infnan2) refers to dadd.o(.text) for __aeabi_dadd
    dunder.o(i.__mathlib_dbl_invalid) refers to ddiv.o(.text) for __aeabi_ddiv
    dunder.o(i.__mathlib_dbl_overflow) refers to dmul.o(.text) for __aeabi_dmul
    dunder.o(i.__mathlib_dbl_posinfnan) refers to dmul.o(.text) for __aeabi_dmul
    dunder.o(i.__mathlib_dbl_underflow) refers to dmul.o(.text) for __aeabi_dmul
    fpclassify.o(i.__ARM_fpclassify) refers (Special) to iusefp.o(.text) for __I$use$fp
    poly.o(i.__kernel_poly) refers (Special) to iusefp.o(.text) for __I$use$fp
    poly.o(i.__kernel_poly) refers to dmul.o(.text) for __aeabi_dmul
    poly.o(i.__kernel_poly) refers to dadd.o(.text) for __aeabi_dadd
    qnan.o(.constdata) refers (Special) to iusefp.o(.text) for __I$use$fp
    rred.o(i.__ieee754_rem_pio2) refers (Special) to iusefp.o(.text) for __I$use$fp
    rred.o(i.__ieee754_rem_pio2) refers to dadd.o(.text) for __aeabi_dsub
    rred.o(i.__ieee754_rem_pio2) refers to fabs.o(i.fabs) for fabs
    rred.o(i.__ieee754_rem_pio2) refers to dmul.o(.text) for __aeabi_dmul
    rred.o(i.__ieee754_rem_pio2) refers to dfixi.o(.text) for __aeabi_d2iz
    rred.o(i.__ieee754_rem_pio2) refers to dflti.o(.text) for __aeabi_i2d
    rred.o(i.__ieee754_rem_pio2) refers to dfltui.o(.text) for __aeabi_ui2d
    rred.o(i.__ieee754_rem_pio2) refers to rred.o(.constdata) for .constdata
    rred.o(i.__use_accurate_range_reduction) refers (Special) to iusefp.o(.text) for __I$use$fp
    rred.o(.constdata) refers (Special) to iusefp.o(.text) for __I$use$fp
    sin_i.o(i.__kernel_sin) refers (Special) to iusefp.o(.text) for __I$use$fp
    sin_i.o(i.__kernel_sin) refers to fpclassify.o(i.__ARM_fpclassify) for __ARM_fpclassify
    sin_i.o(i.__kernel_sin) refers to dunder.o(i.__mathlib_dbl_underflow) for __mathlib_dbl_underflow
    sin_i.o(i.__kernel_sin) refers to dmul.o(.text) for __aeabi_dmul
    sin_i.o(i.__kernel_sin) refers to poly.o(i.__kernel_poly) for __kernel_poly
    sin_i.o(i.__kernel_sin) refers to dadd.o(.text) for __aeabi_dsub
    sin_i.o(i.__kernel_sin) refers to sin_i.o(.constdata) for .constdata
    sin_i.o(.constdata) refers (Special) to iusefp.o(.text) for __I$use$fp
    sin_i_x.o(i.____kernel_sin$lsc) refers (Special) to iusefp.o(.text) for __I$use$fp
    sin_i_x.o(i.____kernel_sin$lsc) refers to dmul.o(.text) for __aeabi_dmul
    sin_i_x.o(i.____kernel_sin$lsc) refers to poly.o(i.__kernel_poly) for __kernel_poly
    sin_i_x.o(i.____kernel_sin$lsc) refers to dadd.o(.text) for __aeabi_dsub
    sin_i_x.o(i.____kernel_sin$lsc) refers to sin_i_x.o(.constdata) for .constdata
    sin_i_x.o(.constdata) refers (Special) to iusefp.o(.text) for __I$use$fp
    tan_i.o(i.__kernel_tan) refers (Special) to iusefp.o(.text) for __I$use$fp
    tan_i.o(i.__kernel_tan) refers to dfixi.o(.text) for __aeabi_d2iz
    tan_i.o(i.__kernel_tan) refers to dadd.o(.text) for __aeabi_drsub
    tan_i.o(i.__kernel_tan) refers to dmul.o(.text) for __aeabi_dmul
    tan_i.o(i.__kernel_tan) refers to poly.o(i.__kernel_poly) for __kernel_poly
    tan_i.o(i.__kernel_tan) refers to dflti.o(.text) for __aeabi_i2d
    tan_i.o(i.__kernel_tan) refers to ddiv.o(.text) for __aeabi_ddiv
    tan_i.o(i.__kernel_tan) refers to fabs.o(i.fabs) for fabs
    tan_i.o(i.__kernel_tan) refers to fpclassify.o(i.__ARM_fpclassify) for __ARM_fpclassify
    tan_i.o(i.__kernel_tan) refers to dunder.o(i.__mathlib_dbl_underflow) for __mathlib_dbl_underflow
    tan_i.o(i.__kernel_tan) refers to tan_i.o(.constdata) for .constdata
    tan_i.o(.constdata) refers (Special) to iusefp.o(.text) for __I$use$fp
    tan_i_x.o(i.____kernel_tan$lsc) refers (Special) to iusefp.o(.text) for __I$use$fp
    tan_i_x.o(i.____kernel_tan$lsc) refers to dfixi.o(.text) for __aeabi_d2iz
    tan_i_x.o(i.____kernel_tan$lsc) refers to dadd.o(.text) for __aeabi_drsub
    tan_i_x.o(i.____kernel_tan$lsc) refers to dmul.o(.text) for __aeabi_dmul
    tan_i_x.o(i.____kernel_tan$lsc) refers to poly.o(i.__kernel_poly) for __kernel_poly
    tan_i_x.o(i.____kernel_tan$lsc) refers to dflti.o(.text) for __aeabi_i2d
    tan_i_x.o(i.____kernel_tan$lsc) refers to ddiv.o(.text) for __aeabi_ddiv
    tan_i_x.o(i.____kernel_tan$lsc) refers to fabs.o(i.fabs) for fabs
    tan_i_x.o(i.____kernel_tan$lsc) refers to tan_i_x.o(.constdata) for .constdata
    tan_i_x.o(.constdata) refers (Special) to iusefp.o(.text) for __I$use$fp
    entry2.o(.ARM.Collect$$$$00000001) refers to entry2.o(.ARM.Collect$$$$00002712) for __lit__00000000
    entry2.o(.ARM.Collect$$$$00002712) refers to startup_stm32f40_41xxx.o(STACK) for __initial_sp
    entry2.o(__vectab_stack_and_reset_area) refers to startup_stm32f40_41xxx.o(STACK) for __initial_sp
    entry2.o(__vectab_stack_and_reset_area) refers to entry.o(.ARM.Collect$$$$00000000) for __main
    entry5.o(.ARM.Collect$$$$00000004) refers to init.o(.text) for __scatterload
    entry9a.o(.ARM.Collect$$$$0000000B) refers to main.o(.text) for main
    entry9b.o(.ARM.Collect$$$$0000000C) refers to main.o(.text) for main
    errno.o(i.__aeabi_errno_addr) refers to errno.o(.data) for .data
    errno.o(i.__read_errno) refers to errno.o(.data) for .data
    errno.o(i.__set_errno) refers to errno.o(.data) for .data
    depilogue.o(.text) refers to llshl.o(.text) for __aeabi_llsl
    depilogue.o(.text) refers to llushr.o(.text) for __aeabi_llsr
    dsqrt.o(.text) refers to llushr.o(.text) for __aeabi_llsr
    dsqrt.o(.text) refers to depilogue.o(.text) for _double_round
    init.o(.text) refers to entry5.o(.ARM.Collect$$$$00000004) for __main_after_scatterload


==============================================================================

Removing Unused input sections from the image.

    Removing ucos_task.o(.rev16_text), (4 bytes).
    Removing ucos_task.o(.revsh_text), (4 bytes).
    Removing main.o(.rev16_text), (4 bytes).
    Removing main.o(.revsh_text), (4 bytes).
    Removing stm32f4xx_it.o(.rev16_text), (4 bytes).
    Removing stm32f4xx_it.o(.revsh_text), (4 bytes).
    Removing system_stm32f4xx.o(.rev16_text), (4 bytes).
    Removing system_stm32f4xx.o(.revsh_text), (4 bytes).
    Removing startup_stm32f40_41xxx.o(HEAP), (512 bytes).
    Removing delay.o(.rev16_text), (4 bytes).
    Removing delay.o(.revsh_text), (4 bytes).
    Removing sys.o(.rev16_text), (4 bytes).
    Removing sys.o(.revsh_text), (4 bytes).
    Removing sys.o(.emb_text), (16 bytes).
    Removing misc.o(.rev16_text), (4 bytes).
    Removing misc.o(.revsh_text), (4 bytes).
    Removing stm32f4xx_gpio.o(.rev16_text), (4 bytes).
    Removing stm32f4xx_gpio.o(.revsh_text), (4 bytes).
    Removing stm32f4xx_fsmc.o(.rev16_text), (4 bytes).
    Removing stm32f4xx_fsmc.o(.revsh_text), (4 bytes).
    Removing stm32f4xx_fsmc.o(.text), (1480 bytes).
    Removing stm32f4xx_fsmc.o(.constdata), (28 bytes).
    Removing stm32f4xx_rcc.o(.rev16_text), (4 bytes).
    Removing stm32f4xx_rcc.o(.revsh_text), (4 bytes).
    Removing stm32f4xx_syscfg.o(.rev16_text), (4 bytes).
    Removing stm32f4xx_syscfg.o(.revsh_text), (4 bytes).
    Removing stm32f4xx_syscfg.o(.text), (148 bytes).
    Removing stm32f4xx_usart.o(.rev16_text), (4 bytes).
    Removing stm32f4xx_usart.o(.revsh_text), (4 bytes).
    Removing stm32f4xx_tim.o(.rev16_text), (4 bytes).
    Removing stm32f4xx_tim.o(.revsh_text), (4 bytes).
    Removing stm32f4xx_flash.o(.rev16_text), (4 bytes).
    Removing stm32f4xx_flash.o(.revsh_text), (4 bytes).
    Removing stm32f4xx_exti.o(.rev16_text), (4 bytes).
    Removing stm32f4xx_exti.o(.revsh_text), (4 bytes).
    Removing stm32f4xx_exti.o(.text), (272 bytes).
    Removing stm32f4xx_pwr.o(.rev16_text), (4 bytes).
    Removing stm32f4xx_pwr.o(.revsh_text), (4 bytes).
    Removing stm32f4xx_pwr.o(.text), (364 bytes).
    Removing stm32f4xx_spi.o(.rev16_text), (4 bytes).
    Removing stm32f4xx_spi.o(.revsh_text), (4 bytes).
    Removing stm32f4xx_spi.o(.text), (1152 bytes).
    Removing stm32f4xx_dma.o(.rev16_text), (4 bytes).
    Removing stm32f4xx_dma.o(.revsh_text), (4 bytes).
    Removing stm32f4xx_rng.o(.rev16_text), (4 bytes).
    Removing stm32f4xx_rng.o(.revsh_text), (4 bytes).
    Removing stm32f4xx_dac.o(.rev16_text), (4 bytes).
    Removing stm32f4xx_dac.o(.revsh_text), (4 bytes).
    Removing stm32f4xx_dac.o(.text), (528 bytes).
    Removing stm32f4xx_adc.o(.rev16_text), (4 bytes).
    Removing stm32f4xx_adc.o(.revsh_text), (4 bytes).
    Removing os_core.o(.rev16_text), (4 bytes).
    Removing os_core.o(.revsh_text), (4 bytes).
    Removing os_flag.o(.rev16_text), (4 bytes).
    Removing os_flag.o(.revsh_text), (4 bytes).
    Removing os_mbox.o(.rev16_text), (4 bytes).
    Removing os_mbox.o(.revsh_text), (4 bytes).
    Removing os_mem.o(.rev16_text), (4 bytes).
    Removing os_mem.o(.revsh_text), (4 bytes).
    Removing os_mutex.o(.rev16_text), (4 bytes).
    Removing os_mutex.o(.revsh_text), (4 bytes).
    Removing os_mutex.o(.text), (1536 bytes).
    Removing os_q.o(.rev16_text), (4 bytes).
    Removing os_q.o(.revsh_text), (4 bytes).
    Removing os_sem.o(.rev16_text), (4 bytes).
    Removing os_sem.o(.revsh_text), (4 bytes).
    Removing os_task.o(.rev16_text), (4 bytes).
    Removing os_task.o(.revsh_text), (4 bytes).
    Removing os_time.o(.rev16_text), (4 bytes).
    Removing os_time.o(.revsh_text), (4 bytes).
    Removing os_tmr.o(.rev16_text), (4 bytes).
    Removing os_tmr.o(.revsh_text), (4 bytes).
    Removing os_cpu_c.o(.rev16_text), (4 bytes).
    Removing os_cpu_c.o(.revsh_text), (4 bytes).
    Removing flash.o(.rev16_text), (4 bytes).
    Removing flash.o(.revsh_text), (4 bytes).
    Removing led_fc.o(.rev16_text), (4 bytes).
    Removing led_fc.o(.revsh_text), (4 bytes).
    Removing pwm_out.o(.rev16_text), (4 bytes).
    Removing pwm_out.o(.revsh_text), (4 bytes).
    Removing pwm_out.o(.bss), (88 bytes).
    Removing time.o(.rev16_text), (4 bytes).
    Removing time.o(.revsh_text), (4 bytes).
    Removing time.o(.data), (20 bytes).
    Removing dma.o(.rev16_text), (4 bytes).
    Removing dma.o(.revsh_text), (4 bytes).
    Removing rng.o(.rev16_text), (4 bytes).
    Removing rng.o(.revsh_text), (4 bytes).
    Removing spi_nrf.o(.rev16_text), (4 bytes).
    Removing spi_nrf.o(.revsh_text), (4 bytes).
    Removing spi_nrf.o(.text), (576 bytes).
    Removing bat.o(.rev16_text), (4 bytes).
    Removing bat.o(.revsh_text), (4 bytes).
    Removing beep.o(.rev16_text), (4 bytes).
    Removing beep.o(.revsh_text), (4 bytes).
    Removing usart_fc.o(.rev16_text), (4 bytes).
    Removing usart_fc.o(.revsh_text), (4 bytes).
    Removing mpu6050.o(.rev16_text), (4 bytes).
    Removing mpu6050.o(.revsh_text), (4 bytes).
    Removing mpu6050.o(.text), (2860 bytes).
    Removing mpu6050.o(.data), (45 bytes).
    Removing mpu9250.o(.rev16_text), (4 bytes).
    Removing mpu9250.o(.revsh_text), (4 bytes).
    Removing mpu9250.o(.text), (676 bytes).
    Removing mpu9250.o(.bss), (18 bytes).
    Removing mpu9250.o(.data), (20 bytes).
    Removing hml5833l.o(.rev16_text), (4 bytes).
    Removing hml5833l.o(.revsh_text), (4 bytes).
    Removing hml5833l.o(.text), (1236 bytes).
    Removing hml5833l.o(.bss), (252 bytes).
    Removing imu.o(.rev16_text), (4 bytes).
    Removing imu.o(.revsh_text), (4 bytes).
    Removing imu.o(.text), (9376 bytes).
    Removing imu.o(.bss), (140 bytes).
    Removing old_x_avoid_n.o(.text), (5652 bytes).
    Removing rt_nonfinite.o(.text), (256 bytes).
    Removing rt_nonfinite.o(.data), (36 bytes).
    Removing rtgetinf.o(.text), (308 bytes).
    Removing rtgetnan.o(.text), (200 bytes).
    Removing leg_lib.o(.rev16_text), (4 bytes).
    Removing leg_lib.o(.revsh_text), (4 bytes).
    Removing leg.o(.rev16_text), (4 bytes).
    Removing leg.o(.revsh_text), (4 bytes).
    Removing brain.o(.rev16_text), (4 bytes).
    Removing brain.o(.revsh_text), (4 bytes).
    Removing brain_g.o(.rev16_text), (4 bytes).
    Removing brain_g.o(.revsh_text), (4 bytes).
    Removing fliter.o(.rev16_text), (4 bytes).
    Removing fliter.o(.revsh_text), (4 bytes).
    Removing fliter.o(.text), (1928 bytes).
    Removing fliter.o(.bss), (2952 bytes).
    Removing fliter.o(.data), (89 bytes).
    Removing my_math.o(.rev16_text), (4 bytes).
    Removing my_math.o(.revsh_text), (4 bytes).
    Removing sbus.o(.emb_text), (8 bytes).
    Removing cycle_cal_oldx.o(.emb_text), (8 bytes).
    Removing cycle_cal_oldx.o(.text), (2584 bytes).
    Removing cycle_cal_oldx.o(.bss), (168 bytes).
    Removing dneg.o(.text), (6 bytes).

139 unused section(s) (total 35954 bytes) removed from the image.

==============================================================================

Image Symbol Table

    Local Symbols

    Symbol Name                              Value     Ov Type        Size  Object(Section)

    ../clib/../cmprslib/zerorunl2.c          0x00000000   Number         0  __dczerorl2.o ABSOLUTE
    ../clib/microlib/errno.c                 0x00000000   Number         0  errno.o ABSOLUTE
    ../clib/microlib/init/entry.s            0x00000000   Number         0  entry9b.o ABSOLUTE
    ../clib/microlib/init/entry.s            0x00000000   Number         0  entry10a.o ABSOLUTE
    ../clib/microlib/init/entry.s            0x00000000   Number         0  entry7b.o ABSOLUTE
    ../clib/microlib/init/entry.s            0x00000000   Number         0  entry2.o ABSOLUTE
    ../clib/microlib/init/entry.s            0x00000000   Number         0  entry8a.o ABSOLUTE
    ../clib/microlib/init/entry.s            0x00000000   Number         0  entry.o ABSOLUTE
    ../clib/microlib/init/entry.s            0x00000000   Number         0  entry9a.o ABSOLUTE
    ../clib/microlib/init/entry.s            0x00000000   Number         0  entry8b.o ABSOLUTE
    ../clib/microlib/init/entry.s            0x00000000   Number         0  entry7a.o ABSOLUTE
    ../clib/microlib/init/entry.s            0x00000000   Number         0  entry11b.o ABSOLUTE
    ../clib/microlib/init/entry.s            0x00000000   Number         0  entry11a.o ABSOLUTE
    ../clib/microlib/init/entry.s            0x00000000   Number         0  entry5.o ABSOLUTE
    ../clib/microlib/init/entry.s            0x00000000   Number         0  entry10b.o ABSOLUTE
    ../clib/microlib/longlong.c              0x00000000   Number         0  llsshr.o ABSOLUTE
    ../clib/microlib/longlong.c              0x00000000   Number         0  llushr.o ABSOLUTE
    ../clib/microlib/longlong.c              0x00000000   Number         0  llshl.o ABSOLUTE
    ../clib/microlib/string/memcpy.c         0x00000000   Number         0  memcpyb.o ABSOLUTE
    ../clib/microlib/string/memcpy.c         0x00000000   Number         0  memcpya.o ABSOLUTE
    ../clib/microlib/string/memset.c         0x00000000   Number         0  memseta.o ABSOLUTE
    ../clib/microlib/stubs.s                 0x00000000   Number         0  iusefp.o ABSOLUTE
    ../fplib/microlib/d2f.c                  0x00000000   Number         0  d2f.o ABSOLUTE
    ../fplib/microlib/f2d.c                  0x00000000   Number         0  f2d.o ABSOLUTE
    ../fplib/microlib/fpadd.c                0x00000000   Number         0  dadd.o ABSOLUTE
    ../fplib/microlib/fpdiv.c                0x00000000   Number         0  ddiv.o ABSOLUTE
    ../fplib/microlib/fpepilogue.c           0x00000000   Number         0  fepilogue.o ABSOLUTE
    ../fplib/microlib/fpepilogue.c           0x00000000   Number         0  depilogue.o ABSOLUTE
    ../fplib/microlib/fpfix.c                0x00000000   Number         0  dfixi.o ABSOLUTE
    ../fplib/microlib/fpflt.c                0x00000000   Number         0  dflti.o ABSOLUTE
    ../fplib/microlib/fpflt.c                0x00000000   Number         0  dfltui.o ABSOLUTE
    ../fplib/microlib/fpmul.c                0x00000000   Number         0  dmul.o ABSOLUTE
    ../fplib/microlib/fpneg.c                0x00000000   Number         0  dneg.o ABSOLUTE
    ../fplib/microlib/fpscalb.c              0x00000000   Number         0  dscalb.o ABSOLUTE
    ../fplib/microlib/fpsqrt.c               0x00000000   Number         0  dsqrt.o ABSOLUTE
    ../mathlib/acos.c                        0x00000000   Number         0  acos.o ABSOLUTE
    ../mathlib/acos.c                        0x00000000   Number         0  acos_x.o ABSOLUTE
    ../mathlib/asin.c                        0x00000000   Number         0  asin.o ABSOLUTE
    ../mathlib/asin.c                        0x00000000   Number         0  asin_x.o ABSOLUTE
    ../mathlib/atan.c                        0x00000000   Number         0  atan.o ABSOLUTE
    ../mathlib/atan.c                        0x00000000   Number         0  atan_x.o ABSOLUTE
    ../mathlib/atan2.c                       0x00000000   Number         0  atan2_x.o ABSOLUTE
    ../mathlib/atan2.c                       0x00000000   Number         0  atan2.o ABSOLUTE
    ../mathlib/cos.c                         0x00000000   Number         0  cos.o ABSOLUTE
    ../mathlib/cos.c                         0x00000000   Number         0  cos_x.o ABSOLUTE
    ../mathlib/cos_i.c                       0x00000000   Number         0  cos_i.o ABSOLUTE
    ../mathlib/dunder.c                      0x00000000   Number         0  dunder.o ABSOLUTE
    ../mathlib/fabs.c                        0x00000000   Number         0  fabs.o ABSOLUTE
    ../mathlib/fpclassify.c                  0x00000000   Number         0  fpclassify.o ABSOLUTE
    ../mathlib/poly.c                        0x00000000   Number         0  poly.o ABSOLUTE
    ../mathlib/pow.c                         0x00000000   Number         0  pow_x.o ABSOLUTE
    ../mathlib/pow.c                         0x00000000   Number         0  pow.o ABSOLUTE
    ../mathlib/qnan.c                        0x00000000   Number         0  qnan.o ABSOLUTE
    ../mathlib/rred.c                        0x00000000   Number         0  rred.o ABSOLUTE
    ../mathlib/sin.c                         0x00000000   Number         0  sin_x.o ABSOLUTE
    ../mathlib/sin.c                         0x00000000   Number         0  sin.o ABSOLUTE
    ../mathlib/sin_i.c                       0x00000000   Number         0  sin_i.o ABSOLUTE
    ../mathlib/sin_i.c                       0x00000000   Number         0  sin_i_x.o ABSOLUTE
    ../mathlib/sqrt.c                        0x00000000   Number         0  sqrt_x.o ABSOLUTE
    ../mathlib/sqrt.c                        0x00000000   Number         0  sqrt.o ABSOLUTE
    ../mathlib/tan.c                         0x00000000   Number         0  tan_x.o ABSOLUTE
    ../mathlib/tan.c                         0x00000000   Number         0  tan.o ABSOLUTE
    ../mathlib/tan_i.c                       0x00000000   Number         0  tan_i_x.o ABSOLUTE
    ../mathlib/tan_i.c                       0x00000000   Number         0  tan_i.o ABSOLUTE
    ..\CORE\startup_stm32f40_41xxx.s         0x00000000   Number         0  startup_stm32f40_41xxx.o ABSOLUTE
    ..\FWLIB\src\misc.c                      0x00000000   Number         0  misc.o ABSOLUTE
    ..\FWLIB\src\stm32f4xx_adc.c             0x00000000   Number         0  stm32f4xx_adc.o ABSOLUTE
    ..\FWLIB\src\stm32f4xx_dac.c             0x00000000   Number         0  stm32f4xx_dac.o ABSOLUTE
    ..\FWLIB\src\stm32f4xx_dma.c             0x00000000   Number         0  stm32f4xx_dma.o ABSOLUTE
    ..\FWLIB\src\stm32f4xx_exti.c            0x00000000   Number         0  stm32f4xx_exti.o ABSOLUTE
    ..\FWLIB\src\stm32f4xx_flash.c           0x00000000   Number         0  stm32f4xx_flash.o ABSOLUTE
    ..\FWLIB\src\stm32f4xx_fsmc.c            0x00000000   Number         0  stm32f4xx_fsmc.o ABSOLUTE
    ..\FWLIB\src\stm32f4xx_gpio.c            0x00000000   Number         0  stm32f4xx_gpio.o ABSOLUTE
    ..\FWLIB\src\stm32f4xx_pwr.c             0x00000000   Number         0  stm32f4xx_pwr.o ABSOLUTE
    ..\FWLIB\src\stm32f4xx_rcc.c             0x00000000   Number         0  stm32f4xx_rcc.o ABSOLUTE
    ..\FWLIB\src\stm32f4xx_rng.c             0x00000000   Number         0  stm32f4xx_rng.o ABSOLUTE
    ..\FWLIB\src\stm32f4xx_spi.c             0x00000000   Number         0  stm32f4xx_spi.o ABSOLUTE
    ..\FWLIB\src\stm32f4xx_syscfg.c          0x00000000   Number         0  stm32f4xx_syscfg.o ABSOLUTE
    ..\FWLIB\src\stm32f4xx_tim.c             0x00000000   Number         0  stm32f4xx_tim.o ABSOLUTE
    ..\FWLIB\src\stm32f4xx_usart.c           0x00000000   Number         0  stm32f4xx_usart.o ABSOLUTE
    ..\HARDWARE\IIC\bat.c                    0x00000000   Number         0  bat.o ABSOLUTE
    ..\HARDWARE\IIC\beep.c                   0x00000000   Number         0  beep.o ABSOLUTE
    ..\HARDWARE\IIC\brain.c                  0x00000000   Number         0  brain.o ABSOLUTE
    ..\HARDWARE\IIC\brain_g.c                0x00000000   Number         0  brain_g.o ABSOLUTE
    ..\HARDWARE\IIC\dma.c                    0x00000000   Number         0  dma.o ABSOLUTE
    ..\HARDWARE\IIC\flash.c                  0x00000000   Number         0  flash.o ABSOLUTE
    ..\HARDWARE\IIC\fliter.c                 0x00000000   Number         0  fliter.o ABSOLUTE
    ..\HARDWARE\IIC\hml5833l.c               0x00000000   Number         0  hml5833l.o ABSOLUTE
    ..\HARDWARE\IIC\imu.c                    0x00000000   Number         0  imu.o ABSOLUTE
    ..\HARDWARE\IIC\led_fc.c                 0x00000000   Number         0  led_fc.o ABSOLUTE
    ..\HARDWARE\IIC\leg.c                    0x00000000   Number         0  leg.o ABSOLUTE
    ..\HARDWARE\IIC\leg_lib.c                0x00000000   Number         0  leg_lib.o ABSOLUTE
    ..\HARDWARE\IIC\mpu6050.c                0x00000000   Number         0  mpu6050.o ABSOLUTE
    ..\HARDWARE\IIC\mpu9250.c                0x00000000   Number         0  mpu9250.o ABSOLUTE
    ..\HARDWARE\IIC\my_math.c                0x00000000   Number         0  my_math.o ABSOLUTE
    ..\HARDWARE\IIC\pwm_out.c                0x00000000   Number         0  pwm_out.o ABSOLUTE
    ..\HARDWARE\IIC\rng.c                    0x00000000   Number         0  rng.o ABSOLUTE
    ..\HARDWARE\IIC\spi_nrf.c                0x00000000   Number         0  spi_nrf.o ABSOLUTE
    ..\HARDWARE\IIC\time.c                   0x00000000   Number         0  time.o ABSOLUTE
    ..\HARDWARE\IIC\ucos_task.c              0x00000000   Number         0  ucos_task.o ABSOLUTE
    ..\HARDWARE\IIC\usart_fc.c               0x00000000   Number         0  usart_fc.o ABSOLUTE
    ..\HARDWARE\circle\OLD_X_AVOID_N.c       0x00000000   Number         0  old_x_avoid_n.o ABSOLUTE
    ..\HARDWARE\circle\rtGetInf.c            0x00000000   Number         0  rtgetinf.o ABSOLUTE
    ..\HARDWARE\circle\rtGetNaN.c            0x00000000   Number         0  rtgetnan.o ABSOLUTE
    ..\HARDWARE\circle\rt_nonfinite.c        0x00000000   Number         0  rt_nonfinite.o ABSOLUTE
    ..\SYSTEM\delay\delay.c                  0x00000000   Number         0  delay.o ABSOLUTE
    ..\SYSTEM\sys\sys.c                      0x00000000   Number         0  sys.o ABSOLUTE
    ..\UCOSII\CORE\os_core.c                 0x00000000   Number         0  os_core.o ABSOLUTE
    ..\UCOSII\CORE\os_flag.c                 0x00000000   Number         0  os_flag.o ABSOLUTE
    ..\UCOSII\CORE\os_mbox.c                 0x00000000   Number         0  os_mbox.o ABSOLUTE
    ..\UCOSII\CORE\os_mem.c                  0x00000000   Number         0  os_mem.o ABSOLUTE
    ..\UCOSII\CORE\os_mutex.c                0x00000000   Number         0  os_mutex.o ABSOLUTE
    ..\UCOSII\CORE\os_q.c                    0x00000000   Number         0  os_q.o ABSOLUTE
    ..\UCOSII\CORE\os_sem.c                  0x00000000   Number         0  os_sem.o ABSOLUTE
    ..\UCOSII\CORE\os_task.c                 0x00000000   Number         0  os_task.o ABSOLUTE
    ..\UCOSII\CORE\os_time.c                 0x00000000   Number         0  os_time.o ABSOLUTE
    ..\UCOSII\CORE\os_tmr.c                  0x00000000   Number         0  os_tmr.o ABSOLUTE
    ..\UCOSII\PORT\os_cpu_a.asm              0x00000000   Number         0  os_cpu_a.o ABSOLUTE
    ..\UCOSII\PORT\os_cpu_c.c                0x00000000   Number         0  os_cpu_c.o ABSOLUTE
    ..\\FWLIB\\src\\misc.c                   0x00000000   Number         0  misc.o ABSOLUTE
    ..\\FWLIB\\src\\stm32f4xx_adc.c          0x00000000   Number         0  stm32f4xx_adc.o ABSOLUTE
    ..\\FWLIB\\src\\stm32f4xx_dac.c          0x00000000   Number         0  stm32f4xx_dac.o ABSOLUTE
    ..\\FWLIB\\src\\stm32f4xx_dma.c          0x00000000   Number         0  stm32f4xx_dma.o ABSOLUTE
    ..\\FWLIB\\src\\stm32f4xx_exti.c         0x00000000   Number         0  stm32f4xx_exti.o ABSOLUTE
    ..\\FWLIB\\src\\stm32f4xx_flash.c        0x00000000   Number         0  stm32f4xx_flash.o ABSOLUTE
    ..\\FWLIB\\src\\stm32f4xx_fsmc.c         0x00000000   Number         0  stm32f4xx_fsmc.o ABSOLUTE
    ..\\FWLIB\\src\\stm32f4xx_gpio.c         0x00000000   Number         0  stm32f4xx_gpio.o ABSOLUTE
    ..\\FWLIB\\src\\stm32f4xx_pwr.c          0x00000000   Number         0  stm32f4xx_pwr.o ABSOLUTE
    ..\\FWLIB\\src\\stm32f4xx_rcc.c          0x00000000   Number         0  stm32f4xx_rcc.o ABSOLUTE
    ..\\FWLIB\\src\\stm32f4xx_rng.c          0x00000000   Number         0  stm32f4xx_rng.o ABSOLUTE
    ..\\FWLIB\\src\\stm32f4xx_spi.c          0x00000000   Number         0  stm32f4xx_spi.o ABSOLUTE
    ..\\FWLIB\\src\\stm32f4xx_syscfg.c       0x00000000   Number         0  stm32f4xx_syscfg.o ABSOLUTE
    ..\\FWLIB\\src\\stm32f4xx_tim.c          0x00000000   Number         0  stm32f4xx_tim.o ABSOLUTE
    ..\\FWLIB\\src\\stm32f4xx_usart.c        0x00000000   Number         0  stm32f4xx_usart.o ABSOLUTE
    ..\\HARDWARE\\IIC\\bat.c                 0x00000000   Number         0  bat.o ABSOLUTE
    ..\\HARDWARE\\IIC\\beep.c                0x00000000   Number         0  beep.o ABSOLUTE
    ..\\HARDWARE\\IIC\\brain.c               0x00000000   Number         0  brain.o ABSOLUTE
    ..\\HARDWARE\\IIC\\brain_g.c             0x00000000   Number         0  brain_g.o ABSOLUTE
    ..\\HARDWARE\\IIC\\dma.c                 0x00000000   Number         0  dma.o ABSOLUTE
    ..\\HARDWARE\\IIC\\flash.c               0x00000000   Number         0  flash.o ABSOLUTE
    ..\\HARDWARE\\IIC\\fliter.c              0x00000000   Number         0  fliter.o ABSOLUTE
    ..\\HARDWARE\\IIC\\hml5833l.c            0x00000000   Number         0  hml5833l.o ABSOLUTE
    ..\\HARDWARE\\IIC\\imu.c                 0x00000000   Number         0  imu.o ABSOLUTE
    ..\\HARDWARE\\IIC\\led_fc.c              0x00000000   Number         0  led_fc.o ABSOLUTE
    ..\\HARDWARE\\IIC\\leg.c                 0x00000000   Number         0  leg.o ABSOLUTE
    ..\\HARDWARE\\IIC\\leg_lib.c             0x00000000   Number         0  leg_lib.o ABSOLUTE
    ..\\HARDWARE\\IIC\\mpu6050.c             0x00000000   Number         0  mpu6050.o ABSOLUTE
    ..\\HARDWARE\\IIC\\mpu9250.c             0x00000000   Number         0  mpu9250.o ABSOLUTE
    ..\\HARDWARE\\IIC\\my_math.c             0x00000000   Number         0  my_math.o ABSOLUTE
    ..\\HARDWARE\\IIC\\pwm_out.c             0x00000000   Number         0  pwm_out.o ABSOLUTE
    ..\\HARDWARE\\IIC\\rng.c                 0x00000000   Number         0  rng.o ABSOLUTE
    ..\\HARDWARE\\IIC\\spi_nrf.c             0x00000000   Number         0  spi_nrf.o ABSOLUTE
    ..\\HARDWARE\\IIC\\time.c                0x00000000   Number         0  time.o ABSOLUTE
    ..\\HARDWARE\\IIC\\ucos_task.c           0x00000000   Number         0  ucos_task.o ABSOLUTE
    ..\\HARDWARE\\IIC\\usart_fc.c            0x00000000   Number         0  usart_fc.o ABSOLUTE
    ..\\SYSTEM\\delay\\delay.c               0x00000000   Number         0  delay.o ABSOLUTE
    ..\\SYSTEM\\sys\\sys.c                   0x00000000   Number         0  sys.o ABSOLUTE
    ..\\UCOSII\\CORE\\os_core.c              0x00000000   Number         0  os_core.o ABSOLUTE
    ..\\UCOSII\\CORE\\os_flag.c              0x00000000   Number         0  os_flag.o ABSOLUTE
    ..\\UCOSII\\CORE\\os_mbox.c              0x00000000   Number         0  os_mbox.o ABSOLUTE
    ..\\UCOSII\\CORE\\os_mem.c               0x00000000   Number         0  os_mem.o ABSOLUTE
    ..\\UCOSII\\CORE\\os_mutex.c             0x00000000   Number         0  os_mutex.o ABSOLUTE
    ..\\UCOSII\\CORE\\os_q.c                 0x00000000   Number         0  os_q.o ABSOLUTE
    ..\\UCOSII\\CORE\\os_sem.c               0x00000000   Number         0  os_sem.o ABSOLUTE
    ..\\UCOSII\\CORE\\os_task.c              0x00000000   Number         0  os_task.o ABSOLUTE
    ..\\UCOSII\\CORE\\os_time.c              0x00000000   Number         0  os_time.o ABSOLUTE
    ..\\UCOSII\\CORE\\os_tmr.c               0x00000000   Number         0  os_tmr.o ABSOLUTE
    ..\\UCOSII\\PORT\\os_cpu_c.c             0x00000000   Number         0  os_cpu_c.o ABSOLUTE
    applications\\cycle_cal_oldx.c           0x00000000   Number         0  cycle_cal_oldx.o ABSOLUTE
    applications\cycle_cal_oldx.c            0x00000000   Number         0  cycle_cal_oldx.o ABSOLUTE
    cdcmple.s                                0x00000000   Number         0  cdcmple.o ABSOLUTE
    cdrcmple.s                               0x00000000   Number         0  cdrcmple.o ABSOLUTE
    dc.s                                     0x00000000   Number         0  dc.o ABSOLUTE
    drivers\\sbus.c                          0x00000000   Number         0  sbus.o ABSOLUTE
    drivers\sbus.c                           0x00000000   Number         0  sbus.o ABSOLUTE
    handlers.s                               0x00000000   Number         0  handlers.o ABSOLUTE
    init.s                                   0x00000000   Number         0  init.o ABSOLUTE
    main.c                                   0x00000000   Number         0  main.o ABSOLUTE
    main.c                                   0x00000000   Number         0  main.o ABSOLUTE
    stm32f4xx_it.c                           0x00000000   Number         0  stm32f4xx_it.o ABSOLUTE
    stm32f4xx_it.c                           0x00000000   Number         0  stm32f4xx_it.o ABSOLUTE
    system_stm32f4xx.c                       0x00000000   Number         0  system_stm32f4xx.o ABSOLUTE
    system_stm32f4xx.c                       0x00000000   Number         0  system_stm32f4xx.o ABSOLUTE
    RESET                                    0x08000000   Section      392  startup_stm32f40_41xxx.o(RESET)
    .ARM.Collect$$$$00000000                 0x08000188   Section        0  entry.o(.ARM.Collect$$$$00000000)
    .ARM.Collect$$$$00000001                 0x08000188   Section        4  entry2.o(.ARM.Collect$$$$00000001)
    .ARM.Collect$$$$00000004                 0x0800018c   Section        4  entry5.o(.ARM.Collect$$$$00000004)
    .ARM.Collect$$$$00000008                 0x08000190   Section        0  entry7b.o(.ARM.Collect$$$$00000008)
    .ARM.Collect$$$$0000000A                 0x08000190   Section        0  entry8b.o(.ARM.Collect$$$$0000000A)
    .ARM.Collect$$$$0000000B                 0x08000190   Section        8  entry9a.o(.ARM.Collect$$$$0000000B)
    .ARM.Collect$$$$0000000D                 0x08000198   Section        0  entry10a.o(.ARM.Collect$$$$0000000D)
    .ARM.Collect$$$$0000000F                 0x08000198   Section        0  entry11a.o(.ARM.Collect$$$$0000000F)
    .ARM.Collect$$$$00002712                 0x08000198   Section        4  entry2.o(.ARM.Collect$$$$00002712)
    __lit__00000000                          0x08000198   Data           4  entry2.o(.ARM.Collect$$$$00002712)
    .text                                    0x0800019c   Section        0  ucos_task.o(.text)
    .text                                    0x08001c54   Section        0  main.o(.text)
    .text                                    0x08001ec4   Section        0  stm32f4xx_it.o(.text)
    .text                                    0x08001ee4   Section        0  system_stm32f4xx.o(.text)
    SetSysClock                              0x08001ee5   Thumb Code   220  system_stm32f4xx.o(.text)
    .text                                    0x080020f4   Section       36  startup_stm32f40_41xxx.o(.text)
    $v0                                      0x080020f4   Number         0  startup_stm32f40_41xxx.o(.text)
    .text                                    0x08002118   Section        0  delay.o(.text)
    .text                                    0x08002220   Section        0  misc.o(.text)
    .text                                    0x08002300   Section        0  stm32f4xx_gpio.o(.text)
    .text                                    0x08002594   Section        0  stm32f4xx_rcc.o(.text)
    .text                                    0x08002bf0   Section        0  stm32f4xx_usart.o(.text)
    .text                                    0x08003044   Section        0  stm32f4xx_tim.o(.text)
    TI4_Config                               0x080037e3   Thumb Code    80  stm32f4xx_tim.o(.text)
    TI3_Config                               0x08003845   Thumb Code    72  stm32f4xx_tim.o(.text)
    TI2_Config                               0x080038a7   Thumb Code    90  stm32f4xx_tim.o(.text)
    TI1_Config                               0x08003913   Thumb Code    58  stm32f4xx_tim.o(.text)
    .text                                    0x08003ce8   Section        0  stm32f4xx_flash.o(.text)
    .text                                    0x0800437c   Section        0  stm32f4xx_dma.o(.text)
    .text                                    0x08004724   Section        0  stm32f4xx_rng.o(.text)
    .text                                    0x080047c4   Section        0  stm32f4xx_adc.o(.text)
    .text                                    0x08004c28   Section        0  os_core.o(.text)
    OS_InitTaskStat                          0x08004cd3   Thumb Code    52  os_core.o(.text)
    OS_InitTaskIdle                          0x08004d29   Thumb Code    52  os_core.o(.text)
    OS_InitEventList                         0x08004d6f   Thumb Code    74  os_core.o(.text)
    OS_InitTCBList                           0x08004db9   Thumb Code   106  os_core.o(.text)
    OS_InitRdyList                           0x08004e23   Thumb Code    44  os_core.o(.text)
    OS_InitMisc                              0x08004e4f   Thumb Code    44  os_core.o(.text)
    OS_SchedNew                              0x08004ec7   Thumb Code    26  os_core.o(.text)
    .text                                    0x080054bc   Section        0  os_flag.o(.text)
    OS_FlagTaskRdy                           0x08005633   Thumb Code    82  os_flag.o(.text)
    OS_FlagBlock                             0x080057ed   Thumb Code   152  os_flag.o(.text)
    .text                                    0x08005cc8   Section        0  os_mbox.o(.text)
    .text                                    0x08006094   Section        0  os_q.o(.text)
    .text                                    0x0800667c   Section        0  os_sem.o(.text)
    .text                                    0x08006a08   Section        0  os_task.o(.text)
    .text                                    0x080071cc   Section        0  os_time.o(.text)
    .text                                    0x0800737c   Section        0  os_tmr.o(.text)
    OSTmr_Alloc                              0x0800737d   Thumb Code    50  os_tmr.o(.text)
    OSTmr_Free                               0x0800740f   Thumb Code    58  os_tmr.o(.text)
    OSTmr_Unlink                             0x08007449   Thumb Code    62  os_tmr.o(.text)
    OSTmr_Link                               0x0800766f   Thumb Code   100  os_tmr.o(.text)
    OSTmr_Task                               0x08007835   Thumb Code   114  os_tmr.o(.text)
    OSTmr_InitTask                           0x080078a7   Thumb Code    50  os_tmr.o(.text)
    .text                                    0x080079b0   Section      200  os_cpu_a.o(.text)
    $v0                                      0x080079b0   Number         0  os_cpu_a.o(.text)
    .text                                    0x08007a78   Section        0  os_cpu_c.o(.text)
    .text                                    0x08007c60   Section        0  flash.o(.text)
    .text                                    0x08008b68   Section        0  led_fc.o(.text)
    .text                                    0x08008f98   Section        0  pwm_out.o(.text)
    .text                                    0x080095cc   Section        0  time.o(.text)
    .text                                    0x08009730   Section        0  dma.o(.text)
    .text                                    0x08009818   Section        0  rng.o(.text)
    .text                                    0x08009884   Section        0  bat.o(.text)
    .text                                    0x08009cd4   Section        0  beep.o(.text)
    .text                                    0x0800a150   Section        0  usart_fc.o(.text)
    Send_Data_SPD                            0x0800a6f5   Thumb Code    26  usart_fc.o(.text)
    Send_Data_DJF1                           0x0800a70f   Thumb Code    26  usart_fc.o(.text)
    Send_Data_GOL_LINK                       0x0800a729   Thumb Code    26  usart_fc.o(.text)
    UsartSend_LEG_BUF                        0x0800aa67   Thumb Code    32  usart_fc.o(.text)
    .text                                    0x0800cd84   Section        0  leg_lib.o(.text)
    swap                                     0x0800fe47   Thumb Code    30  leg_lib.o(.text)
    .text                                    0x08010e00   Section        0  leg.o(.text)
    __ARM_isnanf                             0x08014dc3   Thumb Code    14  leg.o(.text)
    .text                                    0x08014dd4   Section        0  brain.o(.text)
    .text                                    0x08019df0   Section        0  brain_g.o(.text)
    __ARM_isnanf                             0x08020831   Thumb Code    14  brain_g.o(.text)
    .text                                    0x0802084c   Section        0  my_math.o(.text)
    .text                                    0x08020f0c   Section        0  sbus.o(.text)
    .text                                    0x0802116c   Section        0  memcpya.o(.text)
    .text                                    0x08021190   Section        0  memseta.o(.text)
    .text                                    0x080211b4   Section        0  dadd.o(.text)
    .text                                    0x08021302   Section        0  dmul.o(.text)
    .text                                    0x080213e6   Section        0  ddiv.o(.text)
    .text                                    0x080214c4   Section        0  dflti.o(.text)
    .text                                    0x080214e6   Section        0  dfltui.o(.text)
    .text                                    0x08021500   Section        0  dfixi.o(.text)
    .text                                    0x0802153e   Section        0  f2d.o(.text)
    .text                                    0x08021564   Section       48  cdcmple.o(.text)
    .text                                    0x08021594   Section       48  cdrcmple.o(.text)
    .text                                    0x080215c4   Section        0  d2f.o(.text)
    .text                                    0x080215fc   Section        0  llshl.o(.text)
    .text                                    0x0802161a   Section        0  llushr.o(.text)
    .text                                    0x0802163a   Section        0  llsshr.o(.text)
    .text                                    0x0802165e   Section        0  fepilogue.o(.text)
    .text                                    0x0802165e   Section        0  iusefp.o(.text)
    .text                                    0x080216cc   Section        0  depilogue.o(.text)
    .text                                    0x08021786   Section        0  dscalb.o(.text)
    .text                                    0x080217b4   Section        0  dsqrt.o(.text)
    .text                                    0x08021858   Section       36  init.o(.text)
    .text                                    0x0802187c   Section        0  __dczerorl2.o(.text)
    i.__ARM_fpclassify                       0x080218d2   Section        0  fpclassify.o(i.__ARM_fpclassify)
    i.__hardfp_acos                          0x08021908   Section        0  acos.o(i.__hardfp_acos)
    i.__hardfp_atan                          0x08021c60   Section        0  atan.o(i.__hardfp_atan)
    i.__hardfp_atan2                         0x08021f38   Section        0  atan2.o(i.__hardfp_atan2)
    i.__hardfp_cos                           0x08022128   Section        0  cos.o(i.__hardfp_cos)
    i.__hardfp_fabs                          0x080221f0   Section        0  fabs.o(i.__hardfp_fabs)
    i.__hardfp_pow                           0x08022208   Section        0  pow.o(i.__hardfp_pow)
    i.__hardfp_sin                           0x08022e58   Section        0  sin.o(i.__hardfp_sin)
    i.__hardfp_sqrt                          0x08022f20   Section        0  sqrt.o(i.__hardfp_sqrt)
    i.__hardfp_tan                           0x08022fa0   Section        0  tan.o(i.__hardfp_tan)
    i.__ieee754_rem_pio2                     0x08023020   Section        0  rred.o(i.__ieee754_rem_pio2)
    i.__kernel_cos                           0x08023458   Section        0  cos_i.o(i.__kernel_cos)
    i.__kernel_poly                          0x080235c8   Section        0  poly.o(i.__kernel_poly)
    i.__kernel_sin                           0x080236c0   Section        0  sin_i.o(i.__kernel_sin)
    i.__kernel_tan                           0x080237f0   Section        0  tan_i.o(i.__kernel_tan)
    i.__mathlib_dbl_divzero                  0x08023b40   Section        0  dunder.o(i.__mathlib_dbl_divzero)
    i.__mathlib_dbl_infnan                   0x08023b70   Section        0  dunder.o(i.__mathlib_dbl_infnan)
    i.__mathlib_dbl_infnan2                  0x08023b84   Section        0  dunder.o(i.__mathlib_dbl_infnan2)
    i.__mathlib_dbl_invalid                  0x08023b98   Section        0  dunder.o(i.__mathlib_dbl_invalid)
    i.__mathlib_dbl_overflow                 0x08023bb8   Section        0  dunder.o(i.__mathlib_dbl_overflow)
    i.__mathlib_dbl_underflow                0x08023bd8   Section        0  dunder.o(i.__mathlib_dbl_underflow)
    i.__scatterload_copy                     0x08023bf8   Section       14  handlers.o(i.__scatterload_copy)
    i.__scatterload_null                     0x08023c06   Section        2  handlers.o(i.__scatterload_null)
    i.__scatterload_zeroinit                 0x08023c08   Section       14  handlers.o(i.__scatterload_zeroinit)
    i.__set_errno                            0x08023c18   Section        0  errno.o(i.__set_errno)
    i.atan                                   0x08023c24   Section        0  atan.o(i.atan)
    i.fabs                                   0x08023c34   Section        0  fabs.o(i.fabs)
    i.sqrt                                   0x08023c4c   Section        0  sqrt.o(i.sqrt)
    .constdata                               0x08023cbc   Section       16  ucos_task.o(.constdata)
    .constdata                               0x08023ccc   Section      256  os_core.o(.constdata)
    .constdata                               0x08023dcc   Section      144  leg_lib.o(.constdata)
    IP_Table                                 0x08023dcc   Data          64  leg_lib.o(.constdata)
    IPR_Table                                0x08023e0c   Data          64  leg_lib.o(.constdata)
    .constdata                               0x08023e5c   Section        8  leg.o(.constdata)
    .constdata                               0x08023e68   Section       88  brain.o(.constdata)
    .constdata                               0x08023ec0   Section       52  brain_g.o(.constdata)
    .constdata                               0x08023ef8   Section       80  acos.o(.constdata)
    pS                                       0x08023ef8   Data          48  acos.o(.constdata)
    qS                                       0x08023f28   Data          32  acos.o(.constdata)
    .constdata                               0x08023f48   Section      152  atan.o(.constdata)
    atanhi                                   0x08023f48   Data          32  atan.o(.constdata)
    atanlo                                   0x08023f68   Data          32  atan.o(.constdata)
    aTodd                                    0x08023f88   Data          40  atan.o(.constdata)
    aTeven                                   0x08023fb0   Data          48  atan.o(.constdata)
    .constdata                               0x08023fe0   Section      136  pow.o(.constdata)
    bp                                       0x08023fe0   Data          16  pow.o(.constdata)
    dp_h                                     0x08023ff0   Data          16  pow.o(.constdata)
    dp_l                                     0x08024000   Data          16  pow.o(.constdata)
    L                                        0x08024010   Data          48  pow.o(.constdata)
    P                                        0x08024040   Data          40  pow.o(.constdata)
    .constdata                               0x08024068   Section       48  cos_i.o(.constdata)
    C                                        0x08024068   Data          48  cos_i.o(.constdata)
    .constdata                               0x08024098   Section        8  qnan.o(.constdata)
    .constdata                               0x080240a0   Section      200  rred.o(.constdata)
    pio2s                                    0x080240a0   Data          48  rred.o(.constdata)
    twooverpi                                0x080240d0   Data         152  rred.o(.constdata)
    .constdata                               0x08024168   Section       40  sin_i.o(.constdata)
    S                                        0x08024168   Data          40  sin_i.o(.constdata)
    .constdata                               0x08024190   Section       96  tan_i.o(.constdata)
    Todd                                     0x08024190   Data          48  tan_i.o(.constdata)
    Teven                                    0x080241c0   Data          48  tan_i.o(.constdata)
    .data                                    0x20000000   Section      143  ucos_task.o(.data)
    init                                     0x20000072   Data           1  ucos_task.o(.data)
    cnt_init                                 0x20000074   Data           2  ucos_task.o(.data)
    init                                     0x20000076   Data           1  ucos_task.o(.data)
    init                                     0x20000077   Data           1  ucos_task.o(.data)
    init                                     0x20000078   Data           1  ucos_task.o(.data)
    cnt                                      0x20000079   Data           1  ucos_task.o(.data)
    cnt1                                     0x2000007a   Data           1  ucos_task.o(.data)
    cnt2                                     0x2000007b   Data           1  ucos_task.o(.data)
    init                                     0x2000007c   Data           1  ucos_task.o(.data)
    rc_update                                0x2000007d   Data           1  ucos_task.o(.data)
    state_spd_rst                            0x2000007e   Data           1  ucos_task.o(.data)
    uart                                     0x2000007f   Data           1  ucos_task.o(.data)
    flag                                     0x20000080   Data           1  ucos_task.o(.data)
    cnt_soft_rst                             0x20000082   Data           2  ucos_task.o(.data)
    cnt                                      0x20000084   Data           4  ucos_task.o(.data)
    sd_sel                                   0x20000088   Data           1  ucos_task.o(.data)
    tcnt                                     0x20000089   Data           1  ucos_task.o(.data)
    cnt_1                                    0x2000008a   Data           2  ucos_task.o(.data)
    cnt_2                                    0x2000008c   Data           2  ucos_task.o(.data)
    cnt                                      0x2000008e   Data           1  ucos_task.o(.data)
    .data                                    0x20000090   Section      270  main.o(.data)
    .data                                    0x2000019e   Section        1  stm32f4xx_it.o(.data)
    .data                                    0x200001a0   Section       20  system_stm32f4xx.o(.data)
    .data                                    0x200001b4   Section        4  delay.o(.data)
    fac_us                                   0x200001b4   Data           1  delay.o(.data)
    fac_ms                                   0x200001b6   Data           2  delay.o(.data)
    .data                                    0x200001b8   Section       16  stm32f4xx_rcc.o(.data)
    APBAHBPrescTable                         0x200001b8   Data          16  stm32f4xx_rcc.o(.data)
    .data                                    0x200001c8   Section       92  os_core.o(.data)
    .data                                    0x20000224   Section        6  os_cpu_c.o(.data)
    OSTmrCtr                                 0x20000228   Data           2  os_cpu_c.o(.data)
    .data                                    0x2000022c   Section       42  flash.o(.data)
    .data                                    0x20000256   Section       15  led_fc.o(.data)
    main_state                               0x20000259   Data           1  led_fc.o(.data)
    mpu_state                                0x2000025a   Data           1  led_fc.o(.data)
    m_state                                  0x2000025b   Data           1  led_fc.o(.data)
    idle_state                               0x2000025c   Data           1  led_fc.o(.data)
    cnt                                      0x2000025e   Data           2  led_fc.o(.data)
    cnt_idle                                 0x20000260   Data           2  led_fc.o(.data)
    beep_sel                                 0x20000262   Data           1  led_fc.o(.data)
    cnt_gps                                  0x20000263   Data           1  led_fc.o(.data)
    flag_cnt_gps                             0x20000264   Data           1  led_fc.o(.data)
    .data                                    0x20000268   Section       89  pwm_out.o(.data)
    cnt                                      0x200002c0   Data           1  pwm_out.o(.data)
    .data                                    0x200002c4   Section       16  bat.o(.data)
    state                                    0x200002c8   Data           1  bat.o(.data)
    temp                                     0x200002cc   Data           4  bat.o(.data)
    temp1                                    0x200002d0   Data           4  bat.o(.data)
    .data                                    0x200002d4   Section      274  beep.o(.data)
    state                                    0x200003e0   Data           1  beep.o(.data)
    i                                        0x200003e2   Data           2  beep.o(.data)
    cnt                                      0x200003e4   Data           2  beep.o(.data)
    .data                                    0x200003e8   Section       86  usart_fc.o(.data)
    _data_len1                               0x200003f6   Data           1  usart_fc.o(.data)
    _data_cnt1                               0x200003f7   Data           1  usart_fc.o(.data)
    _data_len2                               0x200003ff   Data           1  usart_fc.o(.data)
    _data_cnt2                               0x20000400   Data           1  usart_fc.o(.data)
    _data_len3                               0x20000407   Data           1  usart_fc.o(.data)
    _data_cnt3                               0x20000408   Data           1  usart_fc.o(.data)
    _data_len4                               0x2000040f   Data           1  usart_fc.o(.data)
    _data_cnt4                               0x20000410   Data           1  usart_fc.o(.data)
    _data_len5                               0x20000417   Data           1  usart_fc.o(.data)
    _data_cnt5                               0x20000418   Data           1  usart_fc.o(.data)
    cnt                                      0x20000428   Data           4  usart_fc.o(.data)
    id_sel                                   0x2000042c   Data           5  usart_fc.o(.data)
    id_sel                                   0x20000431   Data           5  usart_fc.o(.data)
    cnt                                      0x20000436   Data           4  usart_fc.o(.data)
    cnt                                      0x2000043a   Data           4  usart_fc.o(.data)
    .data                                    0x20000440   Section      160  hml5833l.o(.data)
    b_IIR_hml                                0x20000470   Data          40  hml5833l.o(.data)
    a_IIR_hml                                0x20000498   Data          40  hml5833l.o(.data)
    MagMAX                                   0x200004c4   Data          12  hml5833l.o(.data)
    MagMIN                                   0x200004d0   Data          12  hml5833l.o(.data)
    cnt_m                                    0x200004dc   Data           2  hml5833l.o(.data)
    hml_cal_temp                             0x200004de   Data           1  hml5833l.o(.data)
    state_cal_hml                            0x200004df   Data           1  hml5833l.o(.data)
    .data                                    0x200004e0   Section      169  imu.o(.data)
    yaw_correct                              0x20000578   Data           4  imu.o(.data)
    yaw_mag                                  0x2000057c   Data           4  imu.o(.data)
    accMagP                                  0x20000580   Data           4  imu.o(.data)
    MagP                                     0x20000584   Data           4  imu.o(.data)
    init                                     0x20000588   Data           1  imu.o(.data)
    .data                                    0x2000058c   Section      756  leg_lib.o(.data)
    E_Table                                  0x2000059e   Data          48  leg_lib.o(.data)
    PC1_Table                                0x200005ce   Data          56  leg_lib.o(.data)
    Move_Table                               0x20000606   Data          16  leg_lib.o(.data)
    PC2_Table                                0x20000616   Data          48  leg_lib.o(.data)
    S_Box                                    0x20000646   Data         512  leg_lib.o(.data)
    P_Table                                  0x20000846   Data          32  leg_lib.o(.data)
    init                                     0x20000866   Data           1  leg_lib.o(.data)
    KiL                                      0x20000868   Data           4  leg_lib.o(.data)
    KiR                                      0x2000086c   Data           4  leg_lib.o(.data)
    MiL                                      0x20000870   Data           4  leg_lib.o(.data)
    MiR                                      0x20000874   Data           4  leg_lib.o(.data)
    MiL                                      0x20000878   Data           4  leg_lib.o(.data)
    MiR                                      0x2000087c   Data           4  leg_lib.o(.data)
    .data                                    0x20000880   Section      145  leg.o(.data)
    init                                     0x200008ec   Data           1  leg.o(.data)
    state                                    0x200008ed   Data           5  leg.o(.data)
    temp_h                                   0x200008f4   Data           4  leg.o(.data)
    state                                    0x200008f8   Data           1  leg.o(.data)
    time                                     0x200008fc   Data           4  leg.o(.data)
    state                                    0x20000900   Data           1  leg.o(.data)
    time                                     0x20000904   Data           4  leg.o(.data)
    rst_all                                  0x20000908   Data           1  leg.o(.data)
    rst_flag                                 0x20000909   Data           1  leg.o(.data)
    init                                     0x2000090a   Data           5  leg.o(.data)
    flag                                     0x2000090f   Data           1  leg.o(.data)
    flag                                     0x20000910   Data           1  leg.o(.data)
    .data                                    0x20000914   Section      245  brain.o(.data)
    stop_leg_tro                             0x20000924   Data           1  brain.o(.data)
    state                                    0x200009d0   Data           1  brain.o(.data)
    no_move                                  0x200009d1   Data           1  brain.o(.data)
    cnt                                      0x200009d2   Data           6  brain.o(.data)
    cnt_init                                 0x200009d8   Data           2  brain.o(.data)
    init                                     0x200009da   Data           1  brain.o(.data)
    cnt_stop                                 0x200009db   Data           1  brain.o(.data)
    leg_trig_flag_reg                        0x200009dc   Data           1  brain.o(.data)
    int_ero                                  0x200009e0   Data           8  brain.o(.data)
    ero                                      0x200009e8   Data           8  brain.o(.data)
    ero_r                                    0x200009f0   Data           8  brain.o(.data)
    reg_flag                                 0x200009f8   Data           1  brain.o(.data)
    reg_flag                                 0x200009f9   Data           1  brain.o(.data)
    lose_center_flag                         0x200009fa   Data           1  brain.o(.data)
    center_now                               0x200009fc   Data           8  brain.o(.data)
    leg_flag                                 0x20000a04   Data           1  brain.o(.data)
    cnt                                      0x20000a06   Data           2  brain.o(.data)
    state                                    0x20000a08   Data           1  brain.o(.data)
    .data                                    0x20000a0c   Section      235  brain_g.o(.data)
    stop_leg                                 0x20000a7c   Data           1  brain_g.o(.data)
    reg_flag                                 0x20000ae0   Data           1  brain_g.o(.data)
    lose_center_flag                         0x20000ae1   Data           1  brain_g.o(.data)
    s_cnt                                    0x20000ae2   Data           2  brain_g.o(.data)
    center_now                               0x20000ae4   Data           8  brain_g.o(.data)
    leg_flag                                 0x20000aec   Data           1  brain_g.o(.data)
    cnt                                      0x20000aee   Data           2  brain_g.o(.data)
    spd_yaw_reg                              0x20000af0   Data           4  brain_g.o(.data)
    flag1                                    0x20000af4   Data           1  brain_g.o(.data)
    state                                    0x20000af5   Data           1  brain_g.o(.data)
    state                                    0x20000af6   Data           1  brain_g.o(.data)
    .data                                    0x20000af8   Section     1028  my_math.o(.data)
    .data                                    0x20000efc   Section       92  sbus.o(.data)
    state                                    0x20000f56   Data           1  sbus.o(.data)
    byteCNT                                  0x20000f57   Data           1  sbus.o(.data)
    .data                                    0x20000f58   Section        4  errno.o(.data)
    _errno                                   0x20000f58   Data           4  errno.o(.data)
    .bss                                     0x20000f5c   Section     9492  ucos_task.o(.bss)
    .bss                                     0x20003470   Section     1280  main.o(.bss)
    .bss                                     0x20003970   Section     4744  os_core.o(.bss)
    .bss                                     0x20004bf8   Section      200  flash.o(.bss)
    .bss                                     0x20004cc0   Section      180  time.o(.bss)
    .bss                                     0x20004d74   Section       30  bat.o(.bss)
    cnt                                      0x20004d88   Data          10  bat.o(.bss)
    .bss                                     0x20004d94   Section     3296  usart_fc.o(.bss)
    cnt                                      0x20005a60   Data          10  usart_fc.o(.bss)
    flag                                     0x20005a6a   Data          10  usart_fc.o(.bss)
    .bss                                     0x20005a74   Section      616  mpu6050.o(.bss)
    ACC_Reg                                  0x20005cd0   Data          12  mpu6050.o(.bss)
    .bss                                     0x20005cdc   Section     1966  leg_lib.o(.bss)
    SubKey                                   0x20005d5d   Data         768  leg_lib.o(.bss)
    Temp                                     0x2000615a   Data         256  leg_lib.o(.bss)
    Temp                                     0x2000625a   Data         256  leg_lib.o(.bss)
    MiR                                      0x2000635a   Data          48  leg_lib.o(.bss)
    KeyBit                                   0x2000638a   Data          64  leg_lib.o(.bss)
    MesBit                                   0x200063ca   Data          64  leg_lib.o(.bss)
    Temp                                     0x2000640a   Data          32  leg_lib.o(.bss)
    MesBit                                   0x2000642a   Data          64  leg_lib.o(.bss)
    Temp                                     0x2000646a   Data          32  leg_lib.o(.bss)
    .bss                                     0x20006490   Section     4358  leg.o(.bss)
    sita_reg                                 0x2000742c   Data          60  leg.o(.bss)
    sita5_reg                                0x20007468   Data          20  leg.o(.bss)
    ground_mask                              0x2000747c   Data          10  leg.o(.bss)
    time                                     0x20007488   Data          20  leg.o(.bss)
    delay                                    0x2000749c   Data          20  leg.o(.bss)
    pos_str                                  0x200074b0   Data          60  leg.o(.bss)
    pos_tar                                  0x200074ec   Data          60  leg.o(.bss)
    off_h                                    0x20007528   Data          20  leg.o(.bss)
    h                                        0x2000753c   Data          20  leg.o(.bss)
    reg                                      0x20007550   Data          60  leg.o(.bss)
    cnt                                      0x2000758c   Data          10  leg.o(.bss)
    .bss                                     0x20007598   Section       64  brain.o(.bss)
    cnt                                      0x200075c4   Data          20  brain.o(.bss)
    .bss                                     0x200075d8   Section      210  brain_g.o(.bss)
    STACK                                    0x200076b0   Section     1024  startup_stm32f40_41xxx.o(STACK)

    Global Symbols

    Symbol Name                              Value     Ov Type        Size  Object(Section)

    BuildAttributes$$THM_ISAv4$E$P$D$K$B$S$7EM$VFPi3$EXTD16$VFPS$VFMA$PE$A:L22UL41UL21$X:L11$S22US41US21$IEEE1$IW$USESV6$~STKCKD$USESV7$~SHL$OTIME$ROPI$IEEEX$EBA8$MICROLIB$REQ8$PRES8$EABIv2 0x00000000   Number         0  anon$$obj.o ABSOLUTE
    __ARM_use_no_argv                        0x00000000   Number         0  main.o ABSOLUTE
    __cpp_initialize__aeabi_                  - Undefined Weak Reference
    __cxa_finalize                            - Undefined Weak Reference
    _clock_init                               - Undefined Weak Reference
    _microlib_exit                            - Undefined Weak Reference
    __Vectors_Size                           0x00000188   Number         0  startup_stm32f40_41xxx.o ABSOLUTE
    __Vectors                                0x08000000   Data           4  startup_stm32f40_41xxx.o(RESET)
    __Vectors_End                            0x08000188   Data           0  startup_stm32f40_41xxx.o(RESET)
    __main                                   0x08000189   Thumb Code     0  entry.o(.ARM.Collect$$$$00000000)
    _main_stk                                0x08000189   Thumb Code     0  entry2.o(.ARM.Collect$$$$00000001)
    _main_scatterload                        0x0800018d   Thumb Code     0  entry5.o(.ARM.Collect$$$$00000004)
    __main_after_scatterload                 0x08000191   Thumb Code     0  entry5.o(.ARM.Collect$$$$00000004)
    _main_clock                              0x08000191   Thumb Code     0  entry7b.o(.ARM.Collect$$$$00000008)
    _main_cpp_init                           0x08000191   Thumb Code     0  entry8b.o(.ARM.Collect$$$$0000000A)
    _main_init                               0x08000191   Thumb Code     0  entry9a.o(.ARM.Collect$$$$0000000B)
    __rt_final_cpp                           0x08000199   Thumb Code     0  entry10a.o(.ARM.Collect$$$$0000000D)
    __rt_final_exit                          0x08000199   Thumb Code     0  entry11a.o(.ARM.Collect$$$$0000000F)
    leg1_task                                0x0800019d   Thumb Code    42  ucos_task.o(.text)
    leg2_task                                0x080001c7   Thumb Code    40  ucos_task.o(.text)
    leg3_task                                0x080001ef   Thumb Code    40  ucos_task.o(.text)
    leg4_task                                0x08000217   Thumb Code    40  ucos_task.o(.text)
    brain_task                               0x0800023f   Thumb Code  4388  ucos_task.o(.text)
    uart_task                                0x08001363   Thumb Code  1924  ucos_task.o(.text)
    tmr1_callback                            0x08001ae7   Thumb Code    44  ucos_task.o(.text)
    tmr2_callback                            0x08001b13   Thumb Code   306  ucos_task.o(.text)
    tmr3_callback                            0x08001c45   Thumb Code     2  ucos_task.o(.text)
    start_task                               0x08001c55   Thumb Code   180  main.o(.text)
    main                                     0x08001d09   Thumb Code   278  main.o(.text)
    flags_task                               0x08001e1f   Thumb Code    38  main.o(.text)
    NMI_Handler                              0x08001ec5   Thumb Code     2  stm32f4xx_it.o(.text)
    HardFault_Handler                        0x08001ec7   Thumb Code    10  stm32f4xx_it.o(.text)
    MemManage_Handler                        0x08001ed1   Thumb Code     4  stm32f4xx_it.o(.text)
    BusFault_Handler                         0x08001ed5   Thumb Code     4  stm32f4xx_it.o(.text)
    UsageFault_Handler                       0x08001ed9   Thumb Code     4  stm32f4xx_it.o(.text)
    SVC_Handler                              0x08001edd   Thumb Code     2  stm32f4xx_it.o(.text)
    DebugMon_Handler                         0x08001edf   Thumb Code     2  stm32f4xx_it.o(.text)
    SystemInit                               0x08001fc1   Thumb Code    88  system_stm32f4xx.o(.text)
    SystemCoreClockUpdate                    0x08002019   Thumb Code   174  system_stm32f4xx.o(.text)
    Reset_Handler                            0x080020f5   Thumb Code     8  startup_stm32f40_41xxx.o(.text)
    ADC_IRQHandler                           0x0800210f   Thumb Code     0  startup_stm32f40_41xxx.o(.text)
    CAN1_RX0_IRQHandler                      0x0800210f   Thumb Code     0  startup_stm32f40_41xxx.o(.text)
    CAN1_RX1_IRQHandler                      0x0800210f   Thumb Code     0  startup_stm32f40_41xxx.o(.text)
    CAN1_SCE_IRQHandler                      0x0800210f   Thumb Code     0  startup_stm32f40_41xxx.o(.text)
    CAN1_TX_IRQHandler                       0x0800210f   Thumb Code     0  startup_stm32f40_41xxx.o(.text)
    CAN2_RX0_IRQHandler                      0x0800210f   Thumb Code     0  startup_stm32f40_41xxx.o(.text)
    CAN2_RX1_IRQHandler                      0x0800210f   Thumb Code     0  startup_stm32f40_41xxx.o(.text)
    CAN2_SCE_IRQHandler                      0x0800210f   Thumb Code     0  startup_stm32f40_41xxx.o(.text)
    CAN2_TX_IRQHandler                       0x0800210f   Thumb Code     0  startup_stm32f40_41xxx.o(.text)
    CRYP_IRQHandler                          0x0800210f   Thumb Code     0  startup_stm32f40_41xxx.o(.text)
    DCMI_IRQHandler                          0x0800210f   Thumb Code     0  startup_stm32f40_41xxx.o(.text)
    DMA1_Stream0_IRQHandler                  0x0800210f   Thumb Code     0  startup_stm32f40_41xxx.o(.text)
    DMA1_Stream1_IRQHandler                  0x0800210f   Thumb Code     0  startup_stm32f40_41xxx.o(.text)
    DMA1_Stream2_IRQHandler                  0x0800210f   Thumb Code     0  startup_stm32f40_41xxx.o(.text)
    DMA1_Stream3_IRQHandler                  0x0800210f   Thumb Code     0  startup_stm32f40_41xxx.o(.text)
    DMA1_Stream4_IRQHandler                  0x0800210f   Thumb Code     0  startup_stm32f40_41xxx.o(.text)
    DMA1_Stream5_IRQHandler                  0x0800210f   Thumb Code     0  startup_stm32f40_41xxx.o(.text)
    DMA1_Stream6_IRQHandler                  0x0800210f   Thumb Code     0  startup_stm32f40_41xxx.o(.text)
    DMA1_Stream7_IRQHandler                  0x0800210f   Thumb Code     0  startup_stm32f40_41xxx.o(.text)
    DMA2_Stream0_IRQHandler                  0x0800210f   Thumb Code     0  startup_stm32f40_41xxx.o(.text)
    DMA2_Stream1_IRQHandler                  0x0800210f   Thumb Code     0  startup_stm32f40_41xxx.o(.text)
    DMA2_Stream2_IRQHandler                  0x0800210f   Thumb Code     0  startup_stm32f40_41xxx.o(.text)
    DMA2_Stream3_IRQHandler                  0x0800210f   Thumb Code     0  startup_stm32f40_41xxx.o(.text)
    DMA2_Stream4_IRQHandler                  0x0800210f   Thumb Code     0  startup_stm32f40_41xxx.o(.text)
    DMA2_Stream5_IRQHandler                  0x0800210f   Thumb Code     0  startup_stm32f40_41xxx.o(.text)
    DMA2_Stream6_IRQHandler                  0x0800210f   Thumb Code     0  startup_stm32f40_41xxx.o(.text)
    DMA2_Stream7_IRQHandler                  0x0800210f   Thumb Code     0  startup_stm32f40_41xxx.o(.text)
    ETH_IRQHandler                           0x0800210f   Thumb Code     0  startup_stm32f40_41xxx.o(.text)
    ETH_WKUP_IRQHandler                      0x0800210f   Thumb Code     0  startup_stm32f40_41xxx.o(.text)
    EXTI0_IRQHandler                         0x0800210f   Thumb Code     0  startup_stm32f40_41xxx.o(.text)
    EXTI15_10_IRQHandler                     0x0800210f   Thumb Code     0  startup_stm32f40_41xxx.o(.text)
    EXTI1_IRQHandler                         0x0800210f   Thumb Code     0  startup_stm32f40_41xxx.o(.text)
    EXTI2_IRQHandler                         0x0800210f   Thumb Code     0  startup_stm32f40_41xxx.o(.text)
    EXTI3_IRQHandler                         0x0800210f   Thumb Code     0  startup_stm32f40_41xxx.o(.text)
    EXTI4_IRQHandler                         0x0800210f   Thumb Code     0  startup_stm32f40_41xxx.o(.text)
    EXTI9_5_IRQHandler                       0x0800210f   Thumb Code     0  startup_stm32f40_41xxx.o(.text)
    FLASH_IRQHandler                         0x0800210f   Thumb Code     0  startup_stm32f40_41xxx.o(.text)
    FPU_IRQHandler                           0x0800210f   Thumb Code     0  startup_stm32f40_41xxx.o(.text)
    FSMC_IRQHandler                          0x0800210f   Thumb Code     0  startup_stm32f40_41xxx.o(.text)
    HASH_RNG_IRQHandler                      0x0800210f   Thumb Code     0  startup_stm32f40_41xxx.o(.text)
    I2C1_ER_IRQHandler                       0x0800210f   Thumb Code     0  startup_stm32f40_41xxx.o(.text)
    I2C1_EV_IRQHandler                       0x0800210f   Thumb Code     0  startup_stm32f40_41xxx.o(.text)
    I2C2_ER_IRQHandler                       0x0800210f   Thumb Code     0  startup_stm32f40_41xxx.o(.text)
    I2C2_EV_IRQHandler                       0x0800210f   Thumb Code     0  startup_stm32f40_41xxx.o(.text)
    I2C3_ER_IRQHandler                       0x0800210f   Thumb Code     0  startup_stm32f40_41xxx.o(.text)
    I2C3_EV_IRQHandler                       0x0800210f   Thumb Code     0  startup_stm32f40_41xxx.o(.text)
    OTG_FS_IRQHandler                        0x0800210f   Thumb Code     0  startup_stm32f40_41xxx.o(.text)
    OTG_FS_WKUP_IRQHandler                   0x0800210f   Thumb Code     0  startup_stm32f40_41xxx.o(.text)
    OTG_HS_EP1_IN_IRQHandler                 0x0800210f   Thumb Code     0  startup_stm32f40_41xxx.o(.text)
    OTG_HS_EP1_OUT_IRQHandler                0x0800210f   Thumb Code     0  startup_stm32f40_41xxx.o(.text)
    OTG_HS_IRQHandler                        0x0800210f   Thumb Code     0  startup_stm32f40_41xxx.o(.text)
    OTG_HS_WKUP_IRQHandler                   0x0800210f   Thumb Code     0  startup_stm32f40_41xxx.o(.text)
    PVD_IRQHandler                           0x0800210f   Thumb Code     0  startup_stm32f40_41xxx.o(.text)
    RCC_IRQHandler                           0x0800210f   Thumb Code     0  startup_stm32f40_41xxx.o(.text)
    RTC_Alarm_IRQHandler                     0x0800210f   Thumb Code     0  startup_stm32f40_41xxx.o(.text)
    RTC_WKUP_IRQHandler                      0x0800210f   Thumb Code     0  startup_stm32f40_41xxx.o(.text)
    SDIO_IRQHandler                          0x0800210f   Thumb Code     0  startup_stm32f40_41xxx.o(.text)
    SPI1_IRQHandler                          0x0800210f   Thumb Code     0  startup_stm32f40_41xxx.o(.text)
    SPI2_IRQHandler                          0x0800210f   Thumb Code     0  startup_stm32f40_41xxx.o(.text)
    SPI3_IRQHandler                          0x0800210f   Thumb Code     0  startup_stm32f40_41xxx.o(.text)
    TAMP_STAMP_IRQHandler                    0x0800210f   Thumb Code     0  startup_stm32f40_41xxx.o(.text)
    TIM1_BRK_TIM9_IRQHandler                 0x0800210f   Thumb Code     0  startup_stm32f40_41xxx.o(.text)
    TIM1_CC_IRQHandler                       0x0800210f   Thumb Code     0  startup_stm32f40_41xxx.o(.text)
    TIM1_TRG_COM_TIM11_IRQHandler            0x0800210f   Thumb Code     0  startup_stm32f40_41xxx.o(.text)
    TIM1_UP_TIM10_IRQHandler                 0x0800210f   Thumb Code     0  startup_stm32f40_41xxx.o(.text)
    TIM2_IRQHandler                          0x0800210f   Thumb Code     0  startup_stm32f40_41xxx.o(.text)
    TIM3_IRQHandler                          0x0800210f   Thumb Code     0  startup_stm32f40_41xxx.o(.text)
    TIM4_IRQHandler                          0x0800210f   Thumb Code     0  startup_stm32f40_41xxx.o(.text)
    TIM5_IRQHandler                          0x0800210f   Thumb Code     0  startup_stm32f40_41xxx.o(.text)
    TIM6_DAC_IRQHandler                      0x0800210f   Thumb Code     0  startup_stm32f40_41xxx.o(.text)
    TIM7_IRQHandler                          0x0800210f   Thumb Code     0  startup_stm32f40_41xxx.o(.text)
    TIM8_BRK_TIM12_IRQHandler                0x0800210f   Thumb Code     0  startup_stm32f40_41xxx.o(.text)
    TIM8_CC_IRQHandler                       0x0800210f   Thumb Code     0  startup_stm32f40_41xxx.o(.text)
    TIM8_TRG_COM_TIM14_IRQHandler            0x0800210f   Thumb Code     0  startup_stm32f40_41xxx.o(.text)
    TIM8_UP_TIM13_IRQHandler                 0x0800210f   Thumb Code     0  startup_stm32f40_41xxx.o(.text)
    USART6_IRQHandler                        0x0800210f   Thumb Code     0  startup_stm32f40_41xxx.o(.text)
    WWDG_IRQHandler                          0x0800210f   Thumb Code     0  startup_stm32f40_41xxx.o(.text)
    SysTick_Handler                          0x08002119   Thumb Code    16  delay.o(.text)
    delay_init                               0x08002129   Thumb Code    76  delay.o(.text)
    delay_us                                 0x08002175   Thumb Code    86  delay.o(.text)
    delay_ms                                 0x080021cb   Thumb Code    68  delay.o(.text)
    NVIC_PriorityGroupConfig                 0x08002221   Thumb Code    10  misc.o(.text)
    NVIC_Init                                0x0800222b   Thumb Code   106  misc.o(.text)
    NVIC_SetVectorTable                      0x08002295   Thumb Code    14  misc.o(.text)
    NVIC_SystemLPConfig                      0x080022a3   Thumb Code    34  misc.o(.text)
    SysTick_CLKSourceConfig                  0x080022c5   Thumb Code    40  misc.o(.text)
    GPIO_DeInit                              0x08002301   Thumb Code   268  stm32f4xx_gpio.o(.text)
    GPIO_Init                                0x0800240d   Thumb Code   144  stm32f4xx_gpio.o(.text)
    GPIO_StructInit                          0x0800249d   Thumb Code    18  stm32f4xx_gpio.o(.text)
    GPIO_PinLockConfig                       0x080024af   Thumb Code    34  stm32f4xx_gpio.o(.text)
    GPIO_ReadInputDataBit                    0x080024d1   Thumb Code    18  stm32f4xx_gpio.o(.text)
    GPIO_ReadInputData                       0x080024e3   Thumb Code     8  stm32f4xx_gpio.o(.text)
    GPIO_ReadOutputDataBit                   0x080024eb   Thumb Code    18  stm32f4xx_gpio.o(.text)
    GPIO_ReadOutputData                      0x080024fd   Thumb Code     8  stm32f4xx_gpio.o(.text)
    GPIO_SetBits                             0x08002505   Thumb Code     4  stm32f4xx_gpio.o(.text)
    GPIO_ResetBits                           0x08002509   Thumb Code     4  stm32f4xx_gpio.o(.text)
    GPIO_WriteBit                            0x0800250d   Thumb Code    10  stm32f4xx_gpio.o(.text)
    GPIO_Write                               0x08002517   Thumb Code     4  stm32f4xx_gpio.o(.text)
    GPIO_ToggleBits                          0x0800251b   Thumb Code     8  stm32f4xx_gpio.o(.text)
    GPIO_PinAFConfig                         0x08002523   Thumb Code    70  stm32f4xx_gpio.o(.text)
    RCC_DeInit                               0x08002595   Thumb Code    82  stm32f4xx_rcc.o(.text)
    RCC_HSEConfig                            0x080025e7   Thumb Code    14  stm32f4xx_rcc.o(.text)
    RCC_GetFlagStatus                        0x080025f5   Thumb Code    60  stm32f4xx_rcc.o(.text)
    RCC_WaitForHSEStartUp                    0x08002631   Thumb Code    56  stm32f4xx_rcc.o(.text)
    RCC_AdjustHSICalibrationValue            0x08002669   Thumb Code    20  stm32f4xx_rcc.o(.text)
    RCC_HSICmd                               0x0800267d   Thumb Code     6  stm32f4xx_rcc.o(.text)
    RCC_LSEConfig                            0x08002683   Thumb Code    46  stm32f4xx_rcc.o(.text)
    RCC_LSICmd                               0x080026b1   Thumb Code     6  stm32f4xx_rcc.o(.text)
    RCC_PLLConfig                            0x080026b7   Thumb Code    32  stm32f4xx_rcc.o(.text)
    RCC_PLLCmd                               0x080026d7   Thumb Code     6  stm32f4xx_rcc.o(.text)
    RCC_PLLI2SConfig                         0x080026dd   Thumb Code    14  stm32f4xx_rcc.o(.text)
    RCC_PLLI2SCmd                            0x080026eb   Thumb Code     6  stm32f4xx_rcc.o(.text)
    RCC_PLLSAIConfig                         0x080026f1   Thumb Code    20  stm32f4xx_rcc.o(.text)
    RCC_PLLSAICmd                            0x08002705   Thumb Code     6  stm32f4xx_rcc.o(.text)
    RCC_ClockSecuritySystemCmd               0x0800270b   Thumb Code     6  stm32f4xx_rcc.o(.text)
    RCC_MCO1Config                           0x08002711   Thumb Code    28  stm32f4xx_rcc.o(.text)
    RCC_MCO2Config                           0x0800272d   Thumb Code    28  stm32f4xx_rcc.o(.text)
    RCC_SYSCLKConfig                         0x08002749   Thumb Code    20  stm32f4xx_rcc.o(.text)
    RCC_GetSYSCLKSource                      0x0800275d   Thumb Code    12  stm32f4xx_rcc.o(.text)
    RCC_HCLKConfig                           0x08002769   Thumb Code    20  stm32f4xx_rcc.o(.text)
    RCC_PCLK1Config                          0x0800277d   Thumb Code    20  stm32f4xx_rcc.o(.text)
    RCC_PCLK2Config                          0x08002791   Thumb Code    22  stm32f4xx_rcc.o(.text)
    RCC_GetClocksFreq                        0x080027a7   Thumb Code   222  stm32f4xx_rcc.o(.text)
    RCC_RTCCLKConfig                         0x08002885   Thumb Code    54  stm32f4xx_rcc.o(.text)
    RCC_RTCCLKCmd                            0x080028bb   Thumb Code     8  stm32f4xx_rcc.o(.text)
    RCC_BackupResetCmd                       0x080028c3   Thumb Code     8  stm32f4xx_rcc.o(.text)
    RCC_I2SCLKConfig                         0x080028cb   Thumb Code     6  stm32f4xx_rcc.o(.text)
    RCC_SAIPLLI2SClkDivConfig                0x080028d1   Thumb Code    26  stm32f4xx_rcc.o(.text)
    RCC_SAIPLLSAIClkDivConfig                0x080028eb   Thumb Code    28  stm32f4xx_rcc.o(.text)
    RCC_SAIBlockACLKConfig                   0x08002907   Thumb Code    20  stm32f4xx_rcc.o(.text)
    RCC_SAIBlockBCLKConfig                   0x0800291b   Thumb Code    20  stm32f4xx_rcc.o(.text)
    RCC_LTDCCLKDivConfig                     0x0800292f   Thumb Code    20  stm32f4xx_rcc.o(.text)
    RCC_TIMCLKPresConfig                     0x08002943   Thumb Code     6  stm32f4xx_rcc.o(.text)
    RCC_AHB1PeriphClockCmd                   0x08002949   Thumb Code    34  stm32f4xx_rcc.o(.text)
    RCC_AHB2PeriphClockCmd                   0x0800296b   Thumb Code    78  stm32f4xx_rcc.o(.text)
    RCC_AHB3PeriphClockCmd                   0x080029b9   Thumb Code    34  stm32f4xx_rcc.o(.text)
    RCC_APB1PeriphClockCmd                   0x080029db   Thumb Code    34  stm32f4xx_rcc.o(.text)
    RCC_APB2PeriphClockCmd                   0x080029fd   Thumb Code    34  stm32f4xx_rcc.o(.text)
    RCC_AHB1PeriphResetCmd                   0x08002a1f   Thumb Code    34  stm32f4xx_rcc.o(.text)
    RCC_AHB2PeriphResetCmd                   0x08002a41   Thumb Code    34  stm32f4xx_rcc.o(.text)
    RCC_AHB3PeriphResetCmd                   0x08002a63   Thumb Code    34  stm32f4xx_rcc.o(.text)
    RCC_APB1PeriphResetCmd                   0x08002a85   Thumb Code    34  stm32f4xx_rcc.o(.text)
    RCC_APB2PeriphResetCmd                   0x08002aa7   Thumb Code    34  stm32f4xx_rcc.o(.text)
    RCC_AHB1PeriphClockLPModeCmd             0x08002ac9   Thumb Code    34  stm32f4xx_rcc.o(.text)
    RCC_AHB2PeriphClockLPModeCmd             0x08002aeb   Thumb Code    34  stm32f4xx_rcc.o(.text)
    RCC_AHB3PeriphClockLPModeCmd             0x08002b0d   Thumb Code    34  stm32f4xx_rcc.o(.text)
    RCC_APB1PeriphClockLPModeCmd             0x08002b2f   Thumb Code    34  stm32f4xx_rcc.o(.text)
    RCC_APB2PeriphClockLPModeCmd             0x08002b51   Thumb Code    34  stm32f4xx_rcc.o(.text)
    RCC_LSEModeConfig                        0x08002b73   Thumb Code    40  stm32f4xx_rcc.o(.text)
    RCC_ITConfig                             0x08002b9b   Thumb Code    34  stm32f4xx_rcc.o(.text)
    RCC_ClearFlag                            0x08002bbd   Thumb Code    18  stm32f4xx_rcc.o(.text)
    RCC_GetITStatus                          0x08002bcf   Thumb Code    22  stm32f4xx_rcc.o(.text)
    RCC_ClearITPendingBit                    0x08002be5   Thumb Code     8  stm32f4xx_rcc.o(.text)
    USART_DeInit                             0x08002bf1   Thumb Code   206  stm32f4xx_usart.o(.text)
    USART_Init                               0x08002cbf   Thumb Code   204  stm32f4xx_usart.o(.text)
    USART_StructInit                         0x08002d8b   Thumb Code    24  stm32f4xx_usart.o(.text)
    USART_ClockInit                          0x08002da3   Thumb Code    32  stm32f4xx_usart.o(.text)
    USART_ClockStructInit                    0x08002dc3   Thumb Code    12  stm32f4xx_usart.o(.text)
    USART_Cmd                                0x08002dcf   Thumb Code    24  stm32f4xx_usart.o(.text)
    USART_SetPrescaler                       0x08002de7   Thumb Code    16  stm32f4xx_usart.o(.text)
    USART_OverSampling8Cmd                   0x08002df7   Thumb Code    22  stm32f4xx_usart.o(.text)
    USART_OneBitMethodCmd                    0x08002e0d   Thumb Code    24  stm32f4xx_usart.o(.text)
    USART_SendData                           0x08002e25   Thumb Code     8  stm32f4xx_usart.o(.text)
    USART_ReceiveData                        0x08002e2d   Thumb Code    10  stm32f4xx_usart.o(.text)
    USART_SetAddress                         0x08002e37   Thumb Code    18  stm32f4xx_usart.o(.text)
    USART_ReceiverWakeUpCmd                  0x08002e49   Thumb Code    24  stm32f4xx_usart.o(.text)
    USART_WakeUpConfig                       0x08002e61   Thumb Code    18  stm32f4xx_usart.o(.text)
    USART_LINBreakDetectLengthConfig         0x08002e73   Thumb Code    18  stm32f4xx_usart.o(.text)
    USART_LINCmd                             0x08002e85   Thumb Code    24  stm32f4xx_usart.o(.text)
    USART_SendBreak                          0x08002e9d   Thumb Code    10  stm32f4xx_usart.o(.text)
    USART_HalfDuplexCmd                      0x08002ea7   Thumb Code    24  stm32f4xx_usart.o(.text)
    USART_SetGuardTime                       0x08002ebf   Thumb Code    16  stm32f4xx_usart.o(.text)
    USART_SmartCardCmd                       0x08002ecf   Thumb Code    24  stm32f4xx_usart.o(.text)
    USART_SmartCardNACKCmd                   0x08002ee7   Thumb Code    24  stm32f4xx_usart.o(.text)
    USART_IrDAConfig                         0x08002eff   Thumb Code    18  stm32f4xx_usart.o(.text)
    USART_IrDACmd                            0x08002f11   Thumb Code    24  stm32f4xx_usart.o(.text)
    USART_DMACmd                             0x08002f29   Thumb Code    18  stm32f4xx_usart.o(.text)
    USART_ITConfig                           0x08002f3b   Thumb Code    74  stm32f4xx_usart.o(.text)
    USART_GetFlagStatus                      0x08002f85   Thumb Code    26  stm32f4xx_usart.o(.text)
    USART_ClearFlag                          0x08002f9f   Thumb Code    18  stm32f4xx_usart.o(.text)
    USART_GetITStatus                        0x08002fb1   Thumb Code   118  stm32f4xx_usart.o(.text)
    USART_ClearITPendingBit                  0x08003027   Thumb Code    30  stm32f4xx_usart.o(.text)
    TIM_DeInit                               0x08003045   Thumb Code   346  stm32f4xx_tim.o(.text)
    TIM_TimeBaseInit                         0x0800319f   Thumb Code   104  stm32f4xx_tim.o(.text)
    TIM_TimeBaseStructInit                   0x08003207   Thumb Code    18  stm32f4xx_tim.o(.text)
    TIM_PrescalerConfig                      0x08003219   Thumb Code     6  stm32f4xx_tim.o(.text)
    TIM_CounterModeConfig                    0x0800321f   Thumb Code    18  stm32f4xx_tim.o(.text)
    TIM_SetCounter                           0x08003231   Thumb Code     4  stm32f4xx_tim.o(.text)
    TIM_SetAutoreload                        0x08003235   Thumb Code     4  stm32f4xx_tim.o(.text)
    TIM_GetCounter                           0x08003239   Thumb Code     6  stm32f4xx_tim.o(.text)
    TIM_GetPrescaler                         0x0800323f   Thumb Code     6  stm32f4xx_tim.o(.text)
    TIM_UpdateDisableConfig                  0x08003245   Thumb Code    24  stm32f4xx_tim.o(.text)
    TIM_UpdateRequestConfig                  0x0800325d   Thumb Code    24  stm32f4xx_tim.o(.text)
    TIM_ARRPreloadConfig                     0x08003275   Thumb Code    24  stm32f4xx_tim.o(.text)
    TIM_SelectOnePulseMode                   0x0800328d   Thumb Code    18  stm32f4xx_tim.o(.text)
    TIM_SetClockDivision                     0x0800329f   Thumb Code    18  stm32f4xx_tim.o(.text)
    TIM_Cmd                                  0x080032b1   Thumb Code    24  stm32f4xx_tim.o(.text)
    TIM_OC1Init                              0x080032c9   Thumb Code   114  stm32f4xx_tim.o(.text)
    TIM_OC2Init                              0x0800333b   Thumb Code   154  stm32f4xx_tim.o(.text)
    TIM_OC3Init                              0x080033d5   Thumb Code   204  stm32f4xx_tim.o(.text)
    TIM_OC4Init                              0x080034a1   Thumb Code   112  stm32f4xx_tim.o(.text)
    TIM_OCStructInit                         0x08003511   Thumb Code    20  stm32f4xx_tim.o(.text)
    TIM_SelectOCxM                           0x08003525   Thumb Code    86  stm32f4xx_tim.o(.text)
    TIM_SetCompare1                          0x0800357b   Thumb Code     4  stm32f4xx_tim.o(.text)
    TIM_SetCompare2                          0x0800357f   Thumb Code     4  stm32f4xx_tim.o(.text)
    TIM_SetCompare3                          0x08003583   Thumb Code     4  stm32f4xx_tim.o(.text)
    TIM_SetCompare4                          0x08003587   Thumb Code     4  stm32f4xx_tim.o(.text)
    TIM_ForcedOC1Config                      0x0800358b   Thumb Code    18  stm32f4xx_tim.o(.text)
    TIM_ForcedOC2Config                      0x0800359d   Thumb Code    26  stm32f4xx_tim.o(.text)
    TIM_ForcedOC3Config                      0x080035b7   Thumb Code    18  stm32f4xx_tim.o(.text)
    TIM_ForcedOC4Config                      0x080035c9   Thumb Code    26  stm32f4xx_tim.o(.text)
    TIM_OC1PreloadConfig                     0x080035e3   Thumb Code    18  stm32f4xx_tim.o(.text)
    TIM_OC2PreloadConfig                     0x080035f5   Thumb Code    26  stm32f4xx_tim.o(.text)
    TIM_OC3PreloadConfig                     0x0800360f   Thumb Code    18  stm32f4xx_tim.o(.text)
    TIM_OC4PreloadConfig                     0x08003621   Thumb Code    26  stm32f4xx_tim.o(.text)
    TIM_OC1FastConfig                        0x0800363b   Thumb Code    18  stm32f4xx_tim.o(.text)
    TIM_OC2FastConfig                        0x0800364d   Thumb Code    26  stm32f4xx_tim.o(.text)
    TIM_OC3FastConfig                        0x08003667   Thumb Code    18  stm32f4xx_tim.o(.text)
    TIM_OC4FastConfig                        0x08003679   Thumb Code    26  stm32f4xx_tim.o(.text)
    TIM_ClearOC1Ref                          0x08003693   Thumb Code    18  stm32f4xx_tim.o(.text)
    TIM_ClearOC2Ref                          0x080036a5   Thumb Code    24  stm32f4xx_tim.o(.text)
    TIM_ClearOC3Ref                          0x080036bd   Thumb Code    18  stm32f4xx_tim.o(.text)
    TIM_ClearOC4Ref                          0x080036cf   Thumb Code    24  stm32f4xx_tim.o(.text)
    TIM_OC1PolarityConfig                    0x080036e7   Thumb Code    18  stm32f4xx_tim.o(.text)
    TIM_OC1NPolarityConfig                   0x080036f9   Thumb Code    18  stm32f4xx_tim.o(.text)
    TIM_OC2PolarityConfig                    0x0800370b   Thumb Code    26  stm32f4xx_tim.o(.text)
    TIM_OC2NPolarityConfig                   0x08003725   Thumb Code    26  stm32f4xx_tim.o(.text)
    TIM_OC3PolarityConfig                    0x0800373f   Thumb Code    26  stm32f4xx_tim.o(.text)
    TIM_OC3NPolarityConfig                   0x08003759   Thumb Code    26  stm32f4xx_tim.o(.text)
    TIM_OC4PolarityConfig                    0x08003773   Thumb Code    26  stm32f4xx_tim.o(.text)
    TIM_CCxCmd                               0x0800378d   Thumb Code    30  stm32f4xx_tim.o(.text)
    TIM_CCxNCmd                              0x080037ab   Thumb Code    30  stm32f4xx_tim.o(.text)
    TIM_SetIC4Prescaler                      0x080037c9   Thumb Code    26  stm32f4xx_tim.o(.text)
    TIM_SetIC3Prescaler                      0x08003833   Thumb Code    18  stm32f4xx_tim.o(.text)
    TIM_SetIC2Prescaler                      0x0800388d   Thumb Code    26  stm32f4xx_tim.o(.text)
    TIM_SetIC1Prescaler                      0x08003901   Thumb Code    18  stm32f4xx_tim.o(.text)
    TIM_ICInit                               0x0800394d   Thumb Code   110  stm32f4xx_tim.o(.text)
    TIM_ICStructInit                         0x080039bb   Thumb Code    18  stm32f4xx_tim.o(.text)
    TIM_PWMIConfig                           0x080039cd   Thumb Code   124  stm32f4xx_tim.o(.text)
    TIM_GetCapture1                          0x08003a49   Thumb Code     6  stm32f4xx_tim.o(.text)
    TIM_GetCapture2                          0x08003a4f   Thumb Code     6  stm32f4xx_tim.o(.text)
    TIM_GetCapture3                          0x08003a55   Thumb Code     6  stm32f4xx_tim.o(.text)
    TIM_GetCapture4                          0x08003a5b   Thumb Code     6  stm32f4xx_tim.o(.text)
    TIM_BDTRConfig                           0x08003a61   Thumb Code    32  stm32f4xx_tim.o(.text)
    TIM_BDTRStructInit                       0x08003a81   Thumb Code    18  stm32f4xx_tim.o(.text)
    TIM_CtrlPWMOutputs                       0x08003a93   Thumb Code    30  stm32f4xx_tim.o(.text)
    TIM_SelectCOM                            0x08003ab1   Thumb Code    24  stm32f4xx_tim.o(.text)
    TIM_CCPreloadControl                     0x08003ac9   Thumb Code    24  stm32f4xx_tim.o(.text)
    TIM_ITConfig                             0x08003ae1   Thumb Code    18  stm32f4xx_tim.o(.text)
    TIM_GenerateEvent                        0x08003af3   Thumb Code     4  stm32f4xx_tim.o(.text)
    TIM_GetFlagStatus                        0x08003af7   Thumb Code    18  stm32f4xx_tim.o(.text)
    TIM_ClearFlag                            0x08003b09   Thumb Code     6  stm32f4xx_tim.o(.text)
    TIM_GetITStatus                          0x08003b0f   Thumb Code    34  stm32f4xx_tim.o(.text)
    TIM_ClearITPendingBit                    0x08003b31   Thumb Code     6  stm32f4xx_tim.o(.text)
    TIM_DMAConfig                            0x08003b37   Thumb Code    10  stm32f4xx_tim.o(.text)
    TIM_DMACmd                               0x08003b41   Thumb Code    18  stm32f4xx_tim.o(.text)
    TIM_SelectCCDMA                          0x08003b53   Thumb Code    24  stm32f4xx_tim.o(.text)
    TIM_InternalClockConfig                  0x08003b6b   Thumb Code    12  stm32f4xx_tim.o(.text)
    TIM_SelectInputTrigger                   0x08003b77   Thumb Code    18  stm32f4xx_tim.o(.text)
    TIM_ITRxExternalClockConfig              0x08003b89   Thumb Code    24  stm32f4xx_tim.o(.text)
    TIM_TIxExternalClockConfig               0x08003ba1   Thumb Code    62  stm32f4xx_tim.o(.text)
    TIM_ETRConfig                            0x08003bdf   Thumb Code    28  stm32f4xx_tim.o(.text)
    TIM_ETRClockMode1Config                  0x08003bfb   Thumb Code    54  stm32f4xx_tim.o(.text)
    TIM_ETRClockMode2Config                  0x08003c31   Thumb Code    32  stm32f4xx_tim.o(.text)
    TIM_SelectOutputTrigger                  0x08003c51   Thumb Code    18  stm32f4xx_tim.o(.text)
    TIM_SelectSlaveMode                      0x08003c63   Thumb Code    18  stm32f4xx_tim.o(.text)
    TIM_SelectMasterSlaveMode                0x08003c75   Thumb Code    18  stm32f4xx_tim.o(.text)
    TIM_EncoderInterfaceConfig               0x08003c87   Thumb Code    66  stm32f4xx_tim.o(.text)
    TIM_SelectHallSensor                     0x08003cc9   Thumb Code    24  stm32f4xx_tim.o(.text)
    TIM_RemapConfig                          0x08003ce1   Thumb Code     6  stm32f4xx_tim.o(.text)
    FLASH_SetLatency                         0x08003ce9   Thumb Code     6  stm32f4xx_flash.o(.text)
    FLASH_PrefetchBufferCmd                  0x08003cef   Thumb Code    30  stm32f4xx_flash.o(.text)
    FLASH_InstructionCacheCmd                0x08003d0d   Thumb Code    30  stm32f4xx_flash.o(.text)
    FLASH_DataCacheCmd                       0x08003d2b   Thumb Code    30  stm32f4xx_flash.o(.text)
    FLASH_InstructionCacheReset              0x08003d49   Thumb Code    14  stm32f4xx_flash.o(.text)
    FLASH_DataCacheReset                     0x08003d57   Thumb Code    14  stm32f4xx_flash.o(.text)
    FLASH_Unlock                             0x08003d65   Thumb Code    26  stm32f4xx_flash.o(.text)
    FLASH_Lock                               0x08003d7f   Thumb Code    18  stm32f4xx_flash.o(.text)
    FLASH_GetStatus                          0x08003d91   Thumb Code    90  stm32f4xx_flash.o(.text)
    FLASH_WaitForLastOperation               0x08003deb   Thumb Code    34  stm32f4xx_flash.o(.text)
    FLASH_EraseSector                        0x08003e0d   Thumb Code   140  stm32f4xx_flash.o(.text)
    FLASH_EraseAllSectors                    0x08003e99   Thumb Code   112  stm32f4xx_flash.o(.text)
    FLASH_EraseAllBank1Sectors               0x08003f09   Thumb Code   112  stm32f4xx_flash.o(.text)
    FLASH_EraseAllBank2Sectors               0x08003f79   Thumb Code   112  stm32f4xx_flash.o(.text)
    FLASH_ProgramDoubleWord                  0x08003fe9   Thumb Code    86  stm32f4xx_flash.o(.text)
    FLASH_ProgramWord                        0x0800403f   Thumb Code    82  stm32f4xx_flash.o(.text)
    FLASH_ProgramHalfWord                    0x08004091   Thumb Code    96  stm32f4xx_flash.o(.text)
    FLASH_ProgramByte                        0x080040f1   Thumb Code    70  stm32f4xx_flash.o(.text)
    FLASH_OB_Unlock                          0x08004137   Thumb Code    26  stm32f4xx_flash.o(.text)
    FLASH_OB_Lock                            0x08004151   Thumb Code    18  stm32f4xx_flash.o(.text)
    FLASH_OB_WRPConfig                       0x08004163   Thumb Code    54  stm32f4xx_flash.o(.text)
    FLASH_OB_WRP1Config                      0x08004199   Thumb Code    54  stm32f4xx_flash.o(.text)
    FLASH_OB_PCROPSelectionConfig            0x080041cf   Thumb Code    24  stm32f4xx_flash.o(.text)
    FLASH_OB_PCROPConfig                     0x080041e7   Thumb Code    54  stm32f4xx_flash.o(.text)
    FLASH_OB_PCROP1Config                    0x0800421d   Thumb Code    54  stm32f4xx_flash.o(.text)
    FLASH_OB_RDPConfig                       0x08004253   Thumb Code    24  stm32f4xx_flash.o(.text)
    FLASH_OB_UserConfig                      0x0800426b   Thumb Code    46  stm32f4xx_flash.o(.text)
    FLASH_OB_BootConfig                      0x08004299   Thumb Code    26  stm32f4xx_flash.o(.text)
    FLASH_OB_BORConfig                       0x080042b3   Thumb Code    26  stm32f4xx_flash.o(.text)
    FLASH_OB_Launch                          0x080042cd   Thumb Code    30  stm32f4xx_flash.o(.text)
    FLASH_OB_GetUser                         0x080042eb   Thumb Code    12  stm32f4xx_flash.o(.text)
    FLASH_OB_GetWRP                          0x080042f7   Thumb Code     8  stm32f4xx_flash.o(.text)
    FLASH_OB_GetWRP1                         0x080042ff   Thumb Code     8  stm32f4xx_flash.o(.text)
    FLASH_OB_GetPCROP                        0x08004307   Thumb Code     8  stm32f4xx_flash.o(.text)
    FLASH_OB_GetPCROP1                       0x0800430f   Thumb Code     8  stm32f4xx_flash.o(.text)
    FLASH_OB_GetRDP                          0x08004317   Thumb Code    20  stm32f4xx_flash.o(.text)
    FLASH_OB_GetBOR                          0x0800432b   Thumb Code    12  stm32f4xx_flash.o(.text)
    FLASH_ITConfig                           0x08004337   Thumb Code    26  stm32f4xx_flash.o(.text)
    FLASH_GetFlagStatus                      0x08004351   Thumb Code    22  stm32f4xx_flash.o(.text)
    FLASH_ClearFlag                          0x08004367   Thumb Code     8  stm32f4xx_flash.o(.text)
    DMA_DeInit                               0x0800437d   Thumb Code   324  stm32f4xx_dma.o(.text)
    DMA_Init                                 0x080044c1   Thumb Code    82  stm32f4xx_dma.o(.text)
    DMA_StructInit                           0x08004513   Thumb Code    34  stm32f4xx_dma.o(.text)
    DMA_Cmd                                  0x08004535   Thumb Code    22  stm32f4xx_dma.o(.text)
    DMA_PeriphIncOffsetSizeConfig            0x0800454b   Thumb Code    22  stm32f4xx_dma.o(.text)
    DMA_FlowControllerConfig                 0x08004561   Thumb Code    22  stm32f4xx_dma.o(.text)
    DMA_SetCurrDataCounter                   0x08004577   Thumb Code     4  stm32f4xx_dma.o(.text)
    DMA_GetCurrDataCounter                   0x0800457b   Thumb Code     8  stm32f4xx_dma.o(.text)
    DMA_DoubleBufferModeConfig               0x08004583   Thumb Code    24  stm32f4xx_dma.o(.text)
    DMA_DoubleBufferModeCmd                  0x0800459b   Thumb Code    22  stm32f4xx_dma.o(.text)
    DMA_MemoryTargetConfig                   0x080045b1   Thumb Code    10  stm32f4xx_dma.o(.text)
    DMA_GetCurrentMemoryTarget               0x080045bb   Thumb Code    20  stm32f4xx_dma.o(.text)
    DMA_GetCmdStatus                         0x080045cf   Thumb Code    20  stm32f4xx_dma.o(.text)
    DMA_GetFIFOStatus                        0x080045e3   Thumb Code    12  stm32f4xx_dma.o(.text)
    DMA_GetFlagStatus                        0x080045ef   Thumb Code    56  stm32f4xx_dma.o(.text)
    DMA_ClearFlag                            0x08004627   Thumb Code    40  stm32f4xx_dma.o(.text)
    DMA_ITConfig                             0x0800464f   Thumb Code    58  stm32f4xx_dma.o(.text)
    DMA_GetITStatus                          0x08004689   Thumb Code    84  stm32f4xx_dma.o(.text)
    DMA_ClearITPendingBit                    0x080046dd   Thumb Code    40  stm32f4xx_dma.o(.text)
    RNG_DeInit                               0x08004725   Thumb Code    20  stm32f4xx_rng.o(.text)
    RNG_Cmd                                  0x08004739   Thumb Code    30  stm32f4xx_rng.o(.text)
    RNG_GetRandomNumber                      0x08004757   Thumb Code     8  stm32f4xx_rng.o(.text)
    RNG_ITConfig                             0x0800475f   Thumb Code    30  stm32f4xx_rng.o(.text)
    RNG_GetFlagStatus                        0x0800477d   Thumb Code    22  stm32f4xx_rng.o(.text)
    RNG_ClearFlag                            0x08004793   Thumb Code    12  stm32f4xx_rng.o(.text)
    RNG_GetITStatus                          0x0800479f   Thumb Code    22  stm32f4xx_rng.o(.text)
    RNG_ClearITPendingBit                    0x080047b5   Thumb Code    12  stm32f4xx_rng.o(.text)
    ADC_DeInit                               0x080047c5   Thumb Code    22  stm32f4xx_adc.o(.text)
    ADC_Init                                 0x080047db   Thumb Code    74  stm32f4xx_adc.o(.text)
    ADC_StructInit                           0x08004825   Thumb Code    20  stm32f4xx_adc.o(.text)
    ADC_CommonInit                           0x08004839   Thumb Code    34  stm32f4xx_adc.o(.text)
    ADC_CommonStructInit                     0x0800485b   Thumb Code    12  stm32f4xx_adc.o(.text)
    ADC_Cmd                                  0x08004867   Thumb Code    22  stm32f4xx_adc.o(.text)
    ADC_AnalogWatchdogCmd                    0x0800487d   Thumb Code    16  stm32f4xx_adc.o(.text)
    ADC_AnalogWatchdogThresholdsConfig       0x0800488d   Thumb Code     6  stm32f4xx_adc.o(.text)
    ADC_AnalogWatchdogSingleChannelConfig    0x08004893   Thumb Code    16  stm32f4xx_adc.o(.text)
    ADC_TempSensorVrefintCmd                 0x080048a3   Thumb Code    34  stm32f4xx_adc.o(.text)
    ADC_VBATCmd                              0x080048c5   Thumb Code    34  stm32f4xx_adc.o(.text)
    ADC_RegularChannelConfig                 0x080048e7   Thumb Code   184  stm32f4xx_adc.o(.text)
    ADC_SoftwareStartConv                    0x0800499f   Thumb Code    10  stm32f4xx_adc.o(.text)
    ADC_GetSoftwareStartConvStatus           0x080049a9   Thumb Code    20  stm32f4xx_adc.o(.text)
    ADC_EOCOnEachRegularChannelCmd           0x080049bd   Thumb Code    22  stm32f4xx_adc.o(.text)
    ADC_ContinuousModeCmd                    0x080049d3   Thumb Code    22  stm32f4xx_adc.o(.text)
    ADC_DiscModeChannelCountConfig           0x080049e9   Thumb Code    24  stm32f4xx_adc.o(.text)
    ADC_DiscModeCmd                          0x08004a01   Thumb Code    22  stm32f4xx_adc.o(.text)
    ADC_GetConversionValue                   0x08004a17   Thumb Code     8  stm32f4xx_adc.o(.text)
    ADC_GetMultiModeConversionValue          0x08004a1f   Thumb Code     8  stm32f4xx_adc.o(.text)
    ADC_DMACmd                               0x08004a27   Thumb Code    22  stm32f4xx_adc.o(.text)
    ADC_DMARequestAfterLastTransferCmd       0x08004a3d   Thumb Code    22  stm32f4xx_adc.o(.text)
    ADC_MultiModeDMARequestAfterLastTransferCmd 0x08004a53   Thumb Code    34  stm32f4xx_adc.o(.text)
    ADC_InjectedChannelConfig                0x08004a75   Thumb Code   130  stm32f4xx_adc.o(.text)
    ADC_InjectedSequencerLengthConfig        0x08004af7   Thumb Code    24  stm32f4xx_adc.o(.text)
    ADC_SetInjectedOffset                    0x08004b0f   Thumb Code    20  stm32f4xx_adc.o(.text)
    ADC_ExternalTrigInjectedConvConfig       0x08004b23   Thumb Code    16  stm32f4xx_adc.o(.text)
    ADC_ExternalTrigInjectedConvEdgeConfig   0x08004b33   Thumb Code    16  stm32f4xx_adc.o(.text)
    ADC_SoftwareStartInjectedConv            0x08004b43   Thumb Code    10  stm32f4xx_adc.o(.text)
    ADC_GetSoftwareStartInjectedConvCmdStatus 0x08004b4d   Thumb Code    20  stm32f4xx_adc.o(.text)
    ADC_AutoInjectedConvCmd                  0x08004b61   Thumb Code    22  stm32f4xx_adc.o(.text)
    ADC_InjectedDiscModeCmd                  0x08004b77   Thumb Code    22  stm32f4xx_adc.o(.text)
    ADC_GetInjectedConversionValue           0x08004b8d   Thumb Code    28  stm32f4xx_adc.o(.text)
    ADC_ITConfig                             0x08004ba9   Thumb Code    56  stm32f4xx_adc.o(.text)
    ADC_GetFlagStatus                        0x08004be1   Thumb Code    18  stm32f4xx_adc.o(.text)
    ADC_ClearFlag                            0x08004bf3   Thumb Code     6  stm32f4xx_adc.o(.text)
    ADC_GetITStatus                          0x08004bf9   Thumb Code    38  stm32f4xx_adc.o(.text)
    ADC_ClearITPendingBit                    0x08004c1f   Thumb Code    10  stm32f4xx_adc.o(.text)
    OS_TaskStatStkChk                        0x08004c29   Thumb Code    54  os_core.o(.text)
    OS_TaskStat                              0x08004c5f   Thumb Code   116  os_core.o(.text)
    OS_TaskIdle                              0x08004d07   Thumb Code    34  os_core.o(.text)
    OS_MemClr                                0x08004d5d   Thumb Code    18  os_core.o(.text)
    OSInit                                   0x08004e7b   Thumb Code    48  os_core.o(.text)
    OSIntEnter                               0x08004eab   Thumb Code    28  os_core.o(.text)
    OSIntExit                                0x08004ee1   Thumb Code   112  os_core.o(.text)
    OSSchedLock                              0x08004f51   Thumb Code    50  os_core.o(.text)
    OS_Sched                                 0x08004f83   Thumb Code    88  os_core.o(.text)
    OSSchedUnlock                            0x08004fdb   Thumb Code   238  os_core.o(.text)
    OSStart                                  0x080050c9   Thumb Code    48  os_core.o(.text)
    OSStatInit                               0x080050f9   Thumb Code    62  os_core.o(.text)
    OSTimeTick                               0x08005137   Thumb Code   210  os_core.o(.text)
    OSVersion                                0x08005209   Thumb Code     6  os_core.o(.text)
    OS_Dummy                                 0x0800520f   Thumb Code     2  os_core.o(.text)
    OS_EventTaskRemove                       0x08005211   Thumb Code    42  os_core.o(.text)
    OS_EventTaskRdy                          0x0800523b   Thumb Code   114  os_core.o(.text)
    OS_EventTaskWait                         0x080052ad   Thumb Code   112  os_core.o(.text)
    OS_EventWaitListInit                     0x0800531d   Thumb Code    28  os_core.o(.text)
    OS_MemCopy                               0x08005339   Thumb Code    20  os_core.o(.text)
    OS_StrLen                                0x0800534d   Thumb Code    20  os_core.o(.text)
    OS_TCBInit                               0x08005361   Thumb Code   280  os_core.o(.text)
    OSFlagAccept                             0x080054bd   Thumb Code   252  os_flag.o(.text)
    OSFlagCreate                             0x080055b9   Thumb Code    86  os_flag.o(.text)
    OS_FlagUnlink                            0x0800560f   Thumb Code    36  os_flag.o(.text)
    OSFlagDel                                0x08005685   Thumb Code   214  os_flag.o(.text)
    OSFlagNameGet                            0x0800575b   Thumb Code    80  os_flag.o(.text)
    OSFlagNameSet                            0x080057ab   Thumb Code    66  os_flag.o(.text)
    OSFlagPend                               0x08005885   Thumb Code   614  os_flag.o(.text)
    OSFlagPendGetFlagsRdy                    0x08005aeb   Thumb Code    26  os_flag.o(.text)
    OSFlagPost                               0x08005b05   Thumb Code   312  os_flag.o(.text)
    OSFlagQuery                              0x08005c3d   Thumb Code    48  os_flag.o(.text)
    OS_FlagInit                              0x08005c6d   Thumb Code    78  os_flag.o(.text)
    OSMboxAccept                             0x08005cc9   Thumb Code    38  os_mbox.o(.text)
    OSMboxCreate                             0x08005cef   Thumb Code    68  os_mbox.o(.text)
    OSMboxDel                                0x08005d33   Thumb Code   200  os_mbox.o(.text)
    OSMboxPend                               0x08005dfb   Thumb Code   246  os_mbox.o(.text)
    OSMboxPendAbort                          0x08005ef1   Thumb Code   128  os_mbox.o(.text)
    OSMboxPost                               0x08005f71   Thumb Code    80  os_mbox.o(.text)
    OSMboxPostOpt                            0x08005fc1   Thumb Code   120  os_mbox.o(.text)
    OSMboxQuery                              0x08006039   Thumb Code    76  os_mbox.o(.text)
    OSQAccept                                0x08006095   Thumb Code    88  os_q.o(.text)
    OSQCreate                                0x080060ed   Thumb Code   140  os_q.o(.text)
    OSQDel                                   0x08006179   Thumb Code   236  os_q.o(.text)
    OSQFlush                                 0x08006265   Thumb Code    36  os_q.o(.text)
    OSQPend                                  0x08006289   Thumb Code   272  os_q.o(.text)
    OSQPendAbort                             0x08006399   Thumb Code   128  os_q.o(.text)
    OSQPost                                  0x08006419   Thumb Code   114  os_q.o(.text)
    OSQPostFront                             0x0800648b   Thumb Code   136  os_q.o(.text)
    OSQPostOpt                               0x08006513   Thumb Code   182  os_q.o(.text)
    OSQQuery                                 0x080065c9   Thumb Code    98  os_q.o(.text)
    OS_QInit                                 0x0800662b   Thumb Code    72  os_q.o(.text)
    OSSemAccept                              0x0800667d   Thumb Code    42  os_sem.o(.text)
    OSSemCreate                              0x080066a7   Thumb Code    68  os_sem.o(.text)
    OSSemDel                                 0x080066eb   Thumb Code   200  os_sem.o(.text)
    OSSemPend                                0x080067b3   Thumb Code   222  os_sem.o(.text)
    OSSemPendAbort                           0x08006891   Thumb Code   128  os_sem.o(.text)
    OSSemPost                                0x08006911   Thumb Code    88  os_sem.o(.text)
    OSSemQuery                               0x08006969   Thumb Code    76  os_sem.o(.text)
    OSSemSet                                 0x080069b5   Thumb Code    66  os_sem.o(.text)
    OSTaskChangePrio                         0x08006a09   Thumb Code   308  os_task.o(.text)
    OSTaskCreate                             0x08006b3d   Thumb Code   148  os_task.o(.text)
    OS_TaskStkClr                            0x08006bd1   Thumb Code    26  os_task.o(.text)
    OSTaskCreateExt                          0x08006beb   Thumb Code   170  os_task.o(.text)
    OSTaskDel                                0x08006c95   Thumb Code   294  os_task.o(.text)
    OSTaskDelReq                             0x08006dbb   Thumb Code   144  os_task.o(.text)
    OSTaskNameGet                            0x08006e4b   Thumb Code   114  os_task.o(.text)
    OSTaskNameSet                            0x08006ebd   Thumb Code    98  os_task.o(.text)
    OSTaskResume                             0x08006f1f   Thumb Code   154  os_task.o(.text)
    OSTaskStkChk                             0x08006fb9   Thumb Code   132  os_task.o(.text)
    OSTaskSuspend                            0x0800703d   Thumb Code   152  os_task.o(.text)
    OSTaskQuery                              0x080070d5   Thumb Code    82  os_task.o(.text)
    OSTaskRegGet                             0x08007127   Thumb Code    60  os_task.o(.text)
    OSTaskRegSet                             0x08007163   Thumb Code    62  os_task.o(.text)
    OS_TaskReturn                            0x080071a1   Thumb Code    18  os_task.o(.text)
    OSTimeDly                                0x080071cd   Thumb Code   100  os_time.o(.text)
    OSTimeDlyHMSM                            0x08007231   Thumb Code    86  os_time.o(.text)
    OSTimeDlyResume                          0x08007287   Thumb Code   168  os_time.o(.text)
    OSTimeGet                                0x0800732f   Thumb Code    24  os_time.o(.text)
    OSTimeSet                                0x08007347   Thumb Code    24  os_time.o(.text)
    OSTmrCreate                              0x080073af   Thumb Code    96  os_tmr.o(.text)
    OSTmrDel                                 0x08007487   Thumb Code   124  os_tmr.o(.text)
    OSTmrNameGet                             0x08007503   Thumb Code   114  os_tmr.o(.text)
    OSTmrRemainGet                           0x08007575   Thumb Code   164  os_tmr.o(.text)
    OSTmrStateGet                            0x08007619   Thumb Code    86  os_tmr.o(.text)
    OSTmrStart                               0x080076d3   Thumb Code   128  os_tmr.o(.text)
    OSTmrStop                                0x08007753   Thumb Code   210  os_tmr.o(.text)
    OSTmrSignal                              0x08007825   Thumb Code    16  os_tmr.o(.text)
    OSTmr_Init                               0x080078d9   Thumb Code   152  os_tmr.o(.text)
    OS_CPU_SR_Save                           0x080079b1   Thumb Code     0  os_cpu_a.o(.text)
    OS_CPU_SR_Restore                        0x080079b9   Thumb Code     0  os_cpu_a.o(.text)
    OSStartHighRdy                           0x080079bf   Thumb Code     0  os_cpu_a.o(.text)
    OSCtxSw                                  0x080079e3   Thumb Code     0  os_cpu_a.o(.text)
    OSIntCtxSw                               0x080079f1   Thumb Code     0  os_cpu_a.o(.text)
    PendSV_Handler                           0x08007a01   Thumb Code     0  os_cpu_a.o(.text)
    OSInitHookBegin                          0x08007a79   Thumb Code     8  os_cpu_c.o(.text)
    OSInitHookEnd                            0x08007a81   Thumb Code     2  os_cpu_c.o(.text)
    OSTaskCreateHook                         0x08007a83   Thumb Code     2  os_cpu_c.o(.text)
    OSTaskDelHook                            0x08007a85   Thumb Code     2  os_cpu_c.o(.text)
    OSTaskIdleHook                           0x08007a87   Thumb Code     2  os_cpu_c.o(.text)
    OSTaskStatHook                           0x08007a89   Thumb Code     2  os_cpu_c.o(.text)
    OSTaskStkInit                            0x08007a8b   Thumb Code   426  os_cpu_c.o(.text)
    OSTaskSwHook                             0x08007c35   Thumb Code     2  os_cpu_c.o(.text)
    OSTCBInitHook                            0x08007c37   Thumb Code     2  os_cpu_c.o(.text)
    OSTimeTickHook                           0x08007c39   Thumb Code    30  os_cpu_c.o(.text)
    OSTaskReturnHook                         0x08007c57   Thumb Code     2  os_cpu_c.o(.text)
    STMFLASH_ReadWord                        0x08007c61   Thumb Code     6  flash.o(.text)
    STMFLASH_GetFlashSector                  0x08007c67   Thumb Code   116  flash.o(.text)
    STMFLASH_Write                           0x08007cdb   Thumb Code   146  flash.o(.text)
    STMFLASH_Read                            0x08007d6d   Thumb Code    32  flash.o(.text)
    WRITE_PARM                               0x08007d8d   Thumb Code  1688  flash.o(.text)
    READ_PARM                                0x08008425   Thumb Code  1812  flash.o(.text)
    LEDRGB                                   0x08008b69   Thumb Code    88  led_fc.o(.text)
    LEDRGB_COLOR                             0x08008bc1   Thumb Code   248  led_fc.o(.text)
    LED_Init                                 0x08008cb9   Thumb Code   152  led_fc.o(.text)
    LEDRGB_STATE                             0x08008d51   Thumb Code   518  led_fc.o(.text)
    Set_DJ_PWM                               0x08008f99   Thumb Code   692  pwm_out.o(.text)
    PWM_Out_Init                             0x0800924d   Thumb Code   614  pwm_out.o(.text)
    PWM_AUX_Out_Init                         0x080094b3   Thumb Code   258  pwm_out.o(.text)
    SysTick_Configuration                    0x080095cd   Thumb Code    98  time.o(.text)
    micros                                   0x0800962f   Thumb Code    10  time.o(.text)
    GetSysTime_us                            0x08009639   Thumb Code     8  time.o(.text)
    Delay_us                                 0x08009641   Thumb Code    12  time.o(.text)
    Delay_ms                                 0x0800964d   Thumb Code    24  time.o(.text)
    Get_Cycle_T                              0x08009665   Thumb Code   118  time.o(.text)
    Cycle_Time_Init                          0x080096db   Thumb Code    22  time.o(.text)
    Initial_Timer_SYS                        0x080096f1   Thumb Code    46  time.o(.text)
    MYDMA_Config                             0x08009731   Thumb Code   184  dma.o(.text)
    MYDMA_Enable                             0x080097e9   Thumb Code    44  dma.o(.text)
    RNG_Init                                 0x08009819   Thumb Code    62  rng.o(.text)
    RNG_Get_RandomNum                        0x08009857   Thumb Code    20  rng.o(.text)
    RNG_Get_RandomRange                      0x0800986b   Thumb Code    26  rng.o(.text)
    Adc_Init                                 0x08009885   Thumb Code   124  bat.o(.text)
    Get_Adc                                  0x08009901   Thumb Code    64  bat.o(.text)
    Get_Adc_Average                          0x08009941   Thumb Code    68  bat.o(.text)
    Bat_protect                              0x08009985   Thumb Code   732  bat.o(.text)
    Tone                                     0x08009cd5   Thumb Code   122  beep.o(.text)
    Play_Music                               0x08009d4f   Thumb Code   128  beep.o(.text)
    Play_Music_In_Task                       0x08009dcf   Thumb Code   304  beep.o(.text)
    Play_Music_Direct                        0x08009eff   Thumb Code    56  beep.o(.text)
    Play_Music_Task                          0x08009f37   Thumb Code   260  beep.o(.text)
    Beep_Init                                0x0800a03b   Thumb Code   276  beep.o(.text)
    Usart1_Init                              0x0800a151   Thumb Code   218  usart_fc.o(.text)
    Usart2_Init                              0x0800a22b   Thumb Code   210  usart_fc.o(.text)
    Usart3_Init                              0x0800a2fd   Thumb Code   218  usart_fc.o(.text)
    Usart4_Init                              0x0800a3d7   Thumb Code   218  usart_fc.o(.text)
    Uart5_Init                               0x0800a4b1   Thumb Code   244  usart_fc.o(.text)
    Uart6_Init                               0x0800a5a5   Thumb Code   196  usart_fc.o(.text)
    UsartSend_LEG_DJ                         0x0800a669   Thumb Code    28  usart_fc.o(.text)
    UsartSend_LEG4                           0x0800a685   Thumb Code    28  usart_fc.o(.text)
    UsartSend_LEG3                           0x0800a6a1   Thumb Code    28  usart_fc.o(.text)
    UsartSend_LEG2                           0x0800a6bd   Thumb Code    28  usart_fc.o(.text)
    UsartSend_LEG1                           0x0800a6d9   Thumb Code    28  usart_fc.o(.text)
    Send_IMU_TO_FLOW                         0x0800a743   Thumb Code   118  usart_fc.o(.text)
    Send_DJ11_12                             0x0800a7b9   Thumb Code   364  usart_fc.o(.text)
    Send_IMU_PARM                            0x0800a925   Thumb Code   288  usart_fc.o(.text)
    GOL_LINK_TASK                            0x0800aa45   Thumb Code    34  usart_fc.o(.text)
    my_itoa                                  0x0800aa87   Thumb Code   136  usart_fc.o(.text)
    UsartSend_LEG_BUF_BUF                    0x0800ab0f   Thumb Code   408  usart_fc.o(.text)
    UsartSend_LEG_BUF_BUF_2                  0x0800aca7   Thumb Code   418  usart_fc.o(.text)
    LEG_POWER_OFF                            0x0800ae49   Thumb Code   144  usart_fc.o(.text)
    Send_LEG                                 0x0800aed9   Thumb Code    28  usart_fc.o(.text)
    Data_LEG_CMD                             0x0800aef5   Thumb Code   728  usart_fc.o(.text)
    Data_Receive_Anl1_RC                     0x0800b1cd   Thumb Code    74  usart_fc.o(.text)
    USART1_IRQHandler                        0x0800b217   Thumb Code   374  usart_fc.o(.text)
    Data_Receive_Anl                         0x0800b38d   Thumb Code   146  usart_fc.o(.text)
    Data_LEG                                 0x0800b41f   Thumb Code  1054  usart_fc.o(.text)
    USART2_IRQHandler                        0x0800b83d   Thumb Code   338  usart_fc.o(.text)
    Data_Receive_Anl_Tinker                  0x0800b98f   Thumb Code   976  usart_fc.o(.text)
    USART3_IRQHandler                        0x0800bd5f   Thumb Code   354  usart_fc.o(.text)
    UART4_IRQHandler                         0x0800bec1   Thumb Code   396  usart_fc.o(.text)
    UART5_IRQHandler                         0x0800c04d   Thumb Code   404  usart_fc.o(.text)
    data_per_uart1                           0x0800c1e1   Thumb Code  1358  usart_fc.o(.text)
    GOL_LINK_TASK_DMA                        0x0800c72f   Thumb Code    28  usart_fc.o(.text)
    clear_leg_uart                           0x0800c74b   Thumb Code    26  usart_fc.o(.text)
    UART_UP_Put_Char                         0x0800c765   Thumb Code    28  usart_fc.o(.text)
    ReportMotion                             0x0800c781   Thumb Code   422  usart_fc.o(.text)
    ReportIMU                                0x0800c927   Thumb Code   300  usart_fc.o(.text)
    Send_Speed                               0x0800ca53   Thumb Code   798  usart_fc.o(.text)
    cal_cog_tri                              0x0800cd85   Thumb Code    42  leg_lib.o(.text)
    conver_legpos_to_barin                   0x0800cdaf   Thumb Code   174  leg_lib.o(.text)
    cal_dis_of_points                        0x0800ce5d   Thumb Code   160  leg_lib.o(.text)
    check_leg_near_init                      0x0800cefd   Thumb Code   190  leg_lib.o(.text)
    get_next_leg_flag_in_list                0x0800cfbb   Thumb Code    70  leg_lib.o(.text)
    leg_repeat_protect                       0x0800d001   Thumb Code   540  leg_lib.o(.text)
    leg_repeat_protect1                      0x0800d21d   Thumb Code   192  leg_lib.o(.text)
    check_point_front_arrow                  0x0800d2dd   Thumb Code   446  leg_lib.o(.text)
    cross_point_of_lines                     0x0800d49b   Thumb Code   192  leg_lib.o(.text)
    line_function90_from_arrow               0x0800d55b   Thumb Code   166  leg_lib.o(.text)
    line_function_from_arrow                 0x0800d601   Thumb Code   150  leg_lib.o(.text)
    resize_point_with_arrow                  0x0800d697   Thumb Code   490  leg_lib.o(.text)
    cal_jiao_of_tuo_and_line                 0x0800d881   Thumb Code   518  leg_lib.o(.text)
    in_circle                                0x0800da87   Thumb Code   308  leg_lib.o(.text)
    limit_trig_pos_of_leg                    0x0800dbbb   Thumb Code  1126  leg_lib.o(.text)
    limit_range_leg                          0x0800e021   Thumb Code   454  leg_lib.o(.text)
    arrow_check_to_bow                       0x0800e1e7   Thumb Code   330  leg_lib.o(.text)
    line_function_from_two_point             0x0800e331   Thumb Code   126  leg_lib.o(.text)
    check_point_on_line                      0x0800e3af   Thumb Code    54  leg_lib.o(.text)
    check_points_same_side                   0x0800e3e5   Thumb Code    64  leg_lib.o(.text)
    check_cross_arrow_line                   0x0800e425   Thumb Code   376  leg_lib.o(.text)
    check_cross_arrow90_line                 0x0800e59d   Thumb Code   266  leg_lib.o(.text)
    cal_center_of_trig                       0x0800e6a7   Thumb Code     2  leg_lib.o(.text)
    dis_point_to_line                        0x0800e6a9   Thumb Code   144  leg_lib.o(.text)
    conver_body_to_global                    0x0800e739   Thumb Code    68  leg_lib.o(.text)
    two_point_between_arror                  0x0800e77d   Thumb Code   132  leg_lib.o(.text)
    limit_move_range_tangle                  0x0800e801   Thumb Code   420  leg_lib.o(.text)
    get_min_dis_arrow_to_tangle              0x0800e9a5   Thumb Code   338  leg_lib.o(.text)
    segmentsIntr                             0x0800eaf7   Thumb Code   492  leg_lib.o(.text)
    inTrig                                   0x0800ece3   Thumb Code   360  leg_lib.o(.text)
    inTrig2                                  0x0800ee4b   Thumb Code   368  leg_lib.o(.text)
    check_in_move_range_tangle               0x0800efbb   Thumb Code   492  leg_lib.o(.text)
    check_in_move_range                      0x0800f1a7   Thumb Code   334  leg_lib.o(.text)
    check_point_to_tangle                    0x0800f2f5   Thumb Code   856  leg_lib.o(.text)
    cal_jiao_of_range_and_line               0x0800f64d   Thumb Code   886  leg_lib.o(.text)
    cal_jiao_of_range_and_line_tangle        0x0800f9c3   Thumb Code   520  leg_lib.o(.text)
    check_point_to_trig                      0x0800fbcb   Thumb Code   636  leg_lib.o(.text)
    cal_area_trig                            0x0800fe65   Thumb Code   720  leg_lib.o(.text)
    cal_steady_s                             0x08010135   Thumb Code   378  leg_lib.o(.text)
    cal_steady_s4                            0x080102af   Thumb Code   290  leg_lib.o(.text)
    find_closet_point                        0x080103d1   Thumb Code   720  leg_lib.o(.text)
    BitToHex                                 0x080106a1   Thumb Code   146  leg_lib.o(.text)
    BitsCopy                                 0x08010733   Thumb Code    22  leg_lib.o(.text)
    TablePermute                             0x08010749   Thumb Code    48  leg_lib.o(.text)
    Xor                                      0x08010779   Thumb Code    26  leg_lib.o(.text)
    ByteToBit                                0x08010793   Thumb Code    56  leg_lib.o(.text)
    S_Change                                 0x080107cb   Thumb Code   102  leg_lib.o(.text)
    F_Change                                 0x08010831   Thumb Code    50  leg_lib.o(.text)
    PlayDes                                  0x08010863   Thumb Code   120  leg_lib.o(.text)
    LoopMove                                 0x080108db   Thumb Code    42  leg_lib.o(.text)
    SetKey                                   0x08010905   Thumb Code    88  leg_lib.o(.text)
    license_check                            0x0801095d   Thumb Code   294  leg_lib.o(.text)
    cpuidGetId                               0x08010a83   Thumb Code    88  leg_lib.o(.text)
    set_lisence                              0x08010adb   Thumb Code    32  leg_lib.o(.text)
    BitToByte                                0x08010afb   Thumb Code    88  leg_lib.o(.text)
    HexToBit                                 0x08010b53   Thumb Code   110  leg_lib.o(.text)
    KickDes                                  0x08010bc1   Thumb Code   222  leg_lib.o(.text)
    des_test                                 0x08010c9f   Thumb Code   346  leg_lib.o(.text)
    READ_LEG_ID                              0x08010e01   Thumb Code     8  leg.o(.text)
    leg_init                                 0x08010e09   Thumb Code  1396  leg.o(.text)
    pos_range_check                          0x0801137d   Thumb Code   170  leg.o(.text)
    cal_sita_form_pos_tri_leg                0x08011427   Thumb Code  1278  leg.o(.text)
    cal_sita_from_pos                        0x08011925   Thumb Code  3964  leg.o(.text)
    cal_pos_from_sita                        0x080128a1   Thumb Code  1744  leg.o(.text)
    cal_pwm_from_sita                        0x08012f71   Thumb Code   696  leg.o(.text)
    curve_cal                                0x08013229   Thumb Code   394  leg.o(.text)
    cal_curve_from_pos                       0x080133b3   Thumb Code  2136  leg.o(.text)
    cal_pos_tar_from_curve                   0x08013c0b   Thumb Code   194  leg.o(.text)
    leg_curve_bai                            0x08013ccd   Thumb Code   660  leg.o(.text)
    leg_follow_curve                         0x08013f61   Thumb Code   700  leg.o(.text)
    cal_pos_tar_for_deng                     0x0801421d   Thumb Code  1218  leg.o(.text)
    leg_ground_check                         0x080146df   Thumb Code    36  leg.o(.text)
    leg_publish                              0x08014703   Thumb Code   880  leg.o(.text)
    leg_drive                                0x08014a73   Thumb Code   848  leg.o(.text)
    barin_init                               0x08014dd5   Thumb Code  1332  brain.o(.text)
    fall_reset                               0x08015309   Thumb Code  2664  brain.o(.text)
    att_control                              0x08015d71   Thumb Code  1576  brain.o(.text)
    fall_treat_tro                           0x08016399   Thumb Code  1674  brain.o(.text)
    center_control_global_tro_new            0x08016a23   Thumb Code  1594  brain.o(.text)
    leg_tar_est_global_tro                   0x0801705d   Thumb Code  3632  brain.o(.text)
    check_leg_need_move_global_tro           0x08017e8d   Thumb Code  1718  brain.o(.text)
    cal_center_of_leg_ground                 0x08018543   Thumb Code  1942  brain.o(.text)
    estimate_center                          0x08018cd9   Thumb Code   432  brain.o(.text)
    leg_task1                                0x08018e89   Thumb Code   408  brain.o(.text)
    center_control_global_tro                0x08019021   Thumb Code  3512  brain.o(.text)
    state_clear                              0x08019df1   Thumb Code    90  brain_g.o(.text)
    cal_pos_global                           0x08019e4b   Thumb Code  4822  brain_g.o(.text)
    fall_treat1                              0x0801b121   Thumb Code  1112  brain_g.o(.text)
    center_control_global                    0x0801b579   Thumb Code  9820  brain_g.o(.text)
    leg_tar_est_global                       0x0801dbd5   Thumb Code  3604  brain_g.o(.text)
    planner_leg_little_dog                   0x0801e9e9   Thumb Code   986  brain_g.o(.text)
    check_leg_need_move_global               0x0801edc3   Thumb Code  4812  brain_g.o(.text)
    planner_leg                              0x0802008f   Thumb Code  1262  brain_g.o(.text)
    fall_treat                               0x0802057d   Thumb Code   692  brain_g.o(.text)
    my_abs                                   0x0802084d   Thumb Code    26  my_math.o(.text)
    fast_atan2                               0x08020867   Thumb Code   350  my_math.o(.text)
    my_atan                                  0x080209c5   Thumb Code    24  my_math.o(.text)
    my_pow                                   0x080209dd   Thumb Code    10  my_math.o(.text)
    my_sqrt                                  0x080209e7   Thumb Code    88  my_math.o(.text)
    mx_sin                                   0x08020a3f   Thumb Code   292  my_math.o(.text)
    my_sin                                   0x08020b63   Thumb Code   108  my_math.o(.text)
    my_cos                                   0x08020bcf   Thumb Code   136  my_math.o(.text)
    my_deathzoom                             0x08020c57   Thumb Code   158  my_math.o(.text)
    my_deathzoom_2                           0x08020cf5   Thumb Code    40  my_math.o(.text)
    my_deathzoom_21                          0x08020d1d   Thumb Code    40  my_math.o(.text)
    my_deathzoom_rc                          0x08020d45   Thumb Code   216  my_math.o(.text)
    limit_mine                               0x08020e1d   Thumb Code    40  my_math.o(.text)
    limit_mine2                              0x08020e45   Thumb Code    36  my_math.o(.text)
    To_180_degrees                           0x08020e69   Thumb Code    58  my_math.o(.text)
    my_pow_2_curve                           0x08020ea3   Thumb Code    80  my_math.o(.text)
    sbus_anal_oldx                           0x08020f0d   Thumb Code   462  sbus.o(.text)
    oldx_sbus_rx                             0x080210db   Thumb Code   120  sbus.o(.text)
    __aeabi_memcpy                           0x0802116d   Thumb Code    36  memcpya.o(.text)
    __aeabi_memcpy4                          0x0802116d   Thumb Code     0  memcpya.o(.text)
    __aeabi_memcpy8                          0x0802116d   Thumb Code     0  memcpya.o(.text)
    __aeabi_memset                           0x08021191   Thumb Code    14  memseta.o(.text)
    __aeabi_memset4                          0x08021191   Thumb Code     0  memseta.o(.text)
    __aeabi_memset8                          0x08021191   Thumb Code     0  memseta.o(.text)
    __aeabi_memclr                           0x0802119f   Thumb Code     4  memseta.o(.text)
    __aeabi_memclr4                          0x0802119f   Thumb Code     0  memseta.o(.text)
    __aeabi_memclr8                          0x0802119f   Thumb Code     0  memseta.o(.text)
    _memset$wrapper                          0x080211a3   Thumb Code    18  memseta.o(.text)
    __aeabi_dadd                             0x080211b5   Thumb Code   322  dadd.o(.text)
    __aeabi_dsub                             0x080212f7   Thumb Code     6  dadd.o(.text)
    __aeabi_drsub                            0x080212fd   Thumb Code     6  dadd.o(.text)
    __aeabi_dmul                             0x08021303   Thumb Code   228  dmul.o(.text)
    __aeabi_ddiv                             0x080213e7   Thumb Code   222  ddiv.o(.text)
    __aeabi_i2d                              0x080214c5   Thumb Code    34  dflti.o(.text)
    __aeabi_ui2d                             0x080214e7   Thumb Code    26  dfltui.o(.text)
    __aeabi_d2iz                             0x08021501   Thumb Code    62  dfixi.o(.text)
    __aeabi_f2d                              0x0802153f   Thumb Code    38  f2d.o(.text)
    __aeabi_cdcmpeq                          0x08021565   Thumb Code     0  cdcmple.o(.text)
    __aeabi_cdcmple                          0x08021565   Thumb Code    48  cdcmple.o(.text)
    __aeabi_cdrcmple                         0x08021595   Thumb Code    48  cdrcmple.o(.text)
    __aeabi_d2f                              0x080215c5   Thumb Code    56  d2f.o(.text)
    __aeabi_llsl                             0x080215fd   Thumb Code    30  llshl.o(.text)
    _ll_shift_l                              0x080215fd   Thumb Code     0  llshl.o(.text)
    __aeabi_llsr                             0x0802161b   Thumb Code    32  llushr.o(.text)
    _ll_ushift_r                             0x0802161b   Thumb Code     0  llushr.o(.text)
    __aeabi_lasr                             0x0802163b   Thumb Code    36  llsshr.o(.text)
    _ll_sshift_r                             0x0802163b   Thumb Code     0  llsshr.o(.text)
    __I$use$fp                               0x0802165f   Thumb Code     0  iusefp.o(.text)
    _float_round                             0x0802165f   Thumb Code    18  fepilogue.o(.text)
    _float_epilogue                          0x08021671   Thumb Code    92  fepilogue.o(.text)
    _double_round                            0x080216cd   Thumb Code    30  depilogue.o(.text)
    _double_epilogue                         0x080216eb   Thumb Code   156  depilogue.o(.text)
    __ARM_scalbn                             0x08021787   Thumb Code    46  dscalb.o(.text)
    scalbn                                   0x08021787   Thumb Code     0  dscalb.o(.text)
    _dsqrt                                   0x080217b5   Thumb Code   162  dsqrt.o(.text)
    __scatterload                            0x08021859   Thumb Code    28  init.o(.text)
    __scatterload_rt2                        0x08021859   Thumb Code     0  init.o(.text)
    __decompress                             0x0802187d   Thumb Code     0  __dczerorl2.o(.text)
    __decompress1                            0x0802187d   Thumb Code    86  __dczerorl2.o(.text)
    __ARM_fpclassify                         0x080218d3   Thumb Code    48  fpclassify.o(i.__ARM_fpclassify)
    __hardfp_acos                            0x08021909   Thumb Code   738  acos.o(i.__hardfp_acos)
    __hardfp_atan                            0x08021c61   Thumb Code   622  atan.o(i.__hardfp_atan)
    __hardfp_atan2                           0x08021f39   Thumb Code   432  atan2.o(i.__hardfp_atan2)
    __hardfp_cos                             0x08022129   Thumb Code   180  cos.o(i.__hardfp_cos)
    __hardfp_fabs                            0x080221f1   Thumb Code    20  fabs.o(i.__hardfp_fabs)
    __hardfp_pow                             0x08022209   Thumb Code  3072  pow.o(i.__hardfp_pow)
    __hardfp_sin                             0x08022e59   Thumb Code   180  sin.o(i.__hardfp_sin)
    __hardfp_sqrt                            0x08022f21   Thumb Code   122  sqrt.o(i.__hardfp_sqrt)
    __hardfp_tan                             0x08022fa1   Thumb Code   108  tan.o(i.__hardfp_tan)
    __ieee754_rem_pio2                       0x08023021   Thumb Code   938  rred.o(i.__ieee754_rem_pio2)
    __kernel_cos                             0x08023459   Thumb Code   322  cos_i.o(i.__kernel_cos)
    __kernel_poly                            0x080235c9   Thumb Code   248  poly.o(i.__kernel_poly)
    __kernel_sin                             0x080236c1   Thumb Code   280  sin_i.o(i.__kernel_sin)
    __kernel_tan                             0x080237f1   Thumb Code   764  tan_i.o(i.__kernel_tan)
    __mathlib_dbl_divzero                    0x08023b41   Thumb Code    28  dunder.o(i.__mathlib_dbl_divzero)
    __mathlib_dbl_infnan                     0x08023b71   Thumb Code    20  dunder.o(i.__mathlib_dbl_infnan)
    __mathlib_dbl_infnan2                    0x08023b85   Thumb Code    20  dunder.o(i.__mathlib_dbl_infnan2)
    __mathlib_dbl_invalid                    0x08023b99   Thumb Code    24  dunder.o(i.__mathlib_dbl_invalid)
    __mathlib_dbl_overflow                   0x08023bb9   Thumb Code    24  dunder.o(i.__mathlib_dbl_overflow)
    __mathlib_dbl_underflow                  0x08023bd9   Thumb Code    24  dunder.o(i.__mathlib_dbl_underflow)
    __scatterload_copy                       0x08023bf9   Thumb Code    14  handlers.o(i.__scatterload_copy)
    __scatterload_null                       0x08023c07   Thumb Code     2  handlers.o(i.__scatterload_null)
    __scatterload_zeroinit                   0x08023c09   Thumb Code    14  handlers.o(i.__scatterload_zeroinit)
    __set_errno                              0x08023c19   Thumb Code     6  errno.o(i.__set_errno)
    atan                                     0x08023c25   Thumb Code    16  atan.o(i.atan)
    fabs                                     0x08023c35   Thumb Code    24  fabs.o(i.fabs)
    sqrt                                     0x08023c4d   Thumb Code   110  sqrt.o(i.sqrt)
    OSUnMapTbl                               0x08023ccc   Data         256  os_core.o(.constdata)
    __mathlib_zero                           0x08024098   Data           8  qnan.o(.constdata)
    Region$$Table$$Base                      0x080241f0   Number         0  anon$$obj.o(Region$$Table)
    Region$$Table$$Limit                     0x08024210   Number         0  anon$$obj.o(Region$$Table)
    k_rc_spd                                 0x20000000   Data           4  ucos_task.o(.data)
    k_z_c                                    0x20000004   Data           4  ucos_task.o(.data)
    test                                     0x20000008   Data          20  ucos_task.o(.data)
    k_rc                                     0x2000001c   Data           8  ucos_task.o(.data)
    Yaw_set                                  0x20000024   Data           4  ucos_task.o(.data)
    kp_yaw                                   0x20000028   Data           4  ucos_task.o(.data)
    kp_face                                  0x2000002c   Data          12  ucos_task.o(.data)
    face_control_rad                         0x20000038   Data           4  ucos_task.o(.data)
    test_w                                   0x2000003c   Data           8  ucos_task.o(.data)
    UART_UP_LOAD_SEL                         0x20000044   Data           1  ucos_task.o(.data)
    state_v_test                             0x20000045   Data           1  ucos_task.o(.data)
    num_need_to_check                        0x20000046   Data           1  ucos_task.o(.data)
    spd_test                                 0x20000048   Data          16  ucos_task.o(.data)
    k_lun_facey                              0x20000058   Data           4  ucos_task.o(.data)
    k_spd_gain_lun                           0x2000005c   Data           8  ucos_task.o(.data)
    tmr1                                     0x20000064   Data           4  ucos_task.o(.data)
    tmr2                                     0x20000068   Data           4  ucos_task.o(.data)
    tmr3                                     0x2000006c   Data           4  ucos_task.o(.data)
    cpuusage                                 0x20000070   Data           2  ucos_task.o(.data)
    msg_key                                  0x20000090   Data           4  main.o(.data)
    q_msg                                    0x20000094   Data           4  main.o(.data)
    flags_key                                0x20000098   Data           4  main.o(.data)
    en_read                                  0x2000009c   Data           1  main.o(.data)
    Lisence                                  0x2000009d   Data         257  main.o(.data)
    hard_fall                                0x2000019e   Data           1  stm32f4xx_it.o(.data)
    SystemCoreClock                          0x200001a0   Data           4  system_stm32f4xx.o(.data)
    AHBPrescTable                            0x200001a4   Data          16  system_stm32f4xx.o(.data)
    OSCtxSwCtr                               0x200001c8   Data           4  os_core.o(.data)
    OSEventFreeList                          0x200001cc   Data           4  os_core.o(.data)
    OSFlagFreeList                           0x200001d0   Data           4  os_core.o(.data)
    OSCPUUsage                               0x200001d4   Data           1  os_core.o(.data)
    OSIdleCtrMax                             0x200001d8   Data           4  os_core.o(.data)
    OSIdleCtrRun                             0x200001dc   Data           4  os_core.o(.data)
    OSStatRdy                                0x200001e0   Data           1  os_core.o(.data)
    OSIntNesting                             0x200001e1   Data           1  os_core.o(.data)
    OSLockNesting                            0x200001e2   Data           1  os_core.o(.data)
    OSPrioCur                                0x200001e3   Data           1  os_core.o(.data)
    OSPrioHighRdy                            0x200001e4   Data           1  os_core.o(.data)
    OSRdyGrp                                 0x200001e5   Data           1  os_core.o(.data)
    OSRdyTbl                                 0x200001e6   Data           8  os_core.o(.data)
    OSRunning                                0x200001ee   Data           1  os_core.o(.data)
    OSTaskCtr                                0x200001ef   Data           1  os_core.o(.data)
    OSIdleCtr                                0x200001f0   Data           4  os_core.o(.data)
    OSTCBCur                                 0x200001f4   Data           4  os_core.o(.data)
    OSTCBFreeList                            0x200001f8   Data           4  os_core.o(.data)
    OSTCBHighRdy                             0x200001fc   Data           4  os_core.o(.data)
    OSTCBList                                0x20000200   Data           4  os_core.o(.data)
    OSTickStepState                          0x20000204   Data           1  os_core.o(.data)
    OSQFreeList                              0x20000208   Data           4  os_core.o(.data)
    OSTime                                   0x2000020c   Data           4  os_core.o(.data)
    OSTmrFree                                0x20000210   Data           2  os_core.o(.data)
    OSTmrUsed                                0x20000212   Data           2  os_core.o(.data)
    OSTmrTime                                0x20000214   Data           4  os_core.o(.data)
    OSTmrSem                                 0x20000218   Data           4  os_core.o(.data)
    OSTmrSemSignal                           0x2000021c   Data           4  os_core.o(.data)
    OSTmrFreeList                            0x20000220   Data           4  os_core.o(.data)
    OSInterrputSum                           0x20000224   Data           4  os_cpu_c.o(.data)
    k_sensitivity                            0x2000022c   Data          12  flash.o(.data)
    FLASH_SIZE                               0x20000238   Data           4  flash.o(.data)
    LENGTH_OF_DRONE                          0x2000023c   Data           2  flash.o(.data)
    H_INT                                    0x20000240   Data           4  flash.o(.data)
    SONAR_HEIGHT                             0x20000244   Data           4  flash.o(.data)
    need_init_mems                           0x20000248   Data           1  flash.o(.data)
    SBUS_MIN                                 0x2000024a   Data           2  flash.o(.data)
    SBUS_MAX                                 0x2000024c   Data           2  flash.o(.data)
    SBUS_MID                                 0x2000024e   Data           2  flash.o(.data)
    SBUS_MIN_A                               0x20000250   Data           2  flash.o(.data)
    SBUS_MAX_A                               0x20000252   Data           2  flash.o(.data)
    SBUS_MID_A                               0x20000254   Data           2  flash.o(.data)
    LED                                      0x20000256   Data           3  led_fc.o(.data)
    Rc_Pwm_Out_mine                          0x20000268   Data          32  pwm_out.o(.data)
    dj_out                                   0x20000288   Data          48  pwm_out.o(.data)
    dj_pan                                   0x200002b8   Data           8  pwm_out.o(.data)
    k_ad                                     0x200002c4   Data           4  bat.o(.data)
    start_music                              0x200002d4   Data          28  beep.o(.data)
    mems_right_music                         0x200002f0   Data           6  beep.o(.data)
    mems_error_music                         0x200002f6   Data           8  beep.o(.data)
    bat_error_music                          0x200002fe   Data          64  beep.o(.data)
    rc_error_music                           0x2000033e   Data          16  beep.o(.data)
    beep_one                                 0x2000034e   Data          12  beep.o(.data)
    beep_two                                 0x2000035a   Data          12  beep.o(.data)
    beep_three                               0x20000366   Data          12  beep.o(.data)
    fc_state_beep                            0x20000372   Data           3  beep.o(.data)
    beep_state                               0x20000375   Data          16  beep.o(.data)
    fc_save_gps_beep                         0x20000385   Data           1  beep.o(.data)
    beep_gps_save                            0x20000386   Data           8  beep.o(.data)
    start_music_pix                          0x2000038e   Data          18  beep.o(.data)
    test_to24                                0x200003a0   Data           1  beep.o(.data)
    Beat_delay                               0x200003a2   Data          14  beep.o(.data)
    tone_table                               0x200003b0   Data          48  beep.o(.data)
    feed_imu_dog                             0x200003e8   Data           1  usart_fc.o(.data)
    test_leg                                 0x200003ea   Data           6  usart_fc.o(.data)
    TxCounter1                               0x200003f0   Data           1  usart_fc.o(.data)
    count1                                   0x200003f1   Data           1  usart_fc.o(.data)
    RxState1                                 0x200003f2   Data           1  usart_fc.o(.data)
    RxBufferNum1                             0x200003f3   Data           1  usart_fc.o(.data)
    RxBufferCnt1                             0x200003f4   Data           1  usart_fc.o(.data)
    RxLen1                                   0x200003f5   Data           1  usart_fc.o(.data)
    set1                                     0x200003f8   Data           1  usart_fc.o(.data)
    TxCounter2                               0x200003f9   Data           1  usart_fc.o(.data)
    count2                                   0x200003fa   Data           1  usart_fc.o(.data)
    RxState2                                 0x200003fb   Data           1  usart_fc.o(.data)
    RxBufferNum2                             0x200003fc   Data           1  usart_fc.o(.data)
    RxBufferCnt2                             0x200003fd   Data           1  usart_fc.o(.data)
    RxLen2                                   0x200003fe   Data           1  usart_fc.o(.data)
    TxCounter3                               0x20000401   Data           1  usart_fc.o(.data)
    count3                                   0x20000402   Data           1  usart_fc.o(.data)
    RxState3                                 0x20000403   Data           1  usart_fc.o(.data)
    RxBufferNum3                             0x20000404   Data           1  usart_fc.o(.data)
    RxBufferCnt3                             0x20000405   Data           1  usart_fc.o(.data)
    RxLen3                                   0x20000406   Data           1  usart_fc.o(.data)
    TxCounter4                               0x20000409   Data           1  usart_fc.o(.data)
    count4                                   0x2000040a   Data           1  usart_fc.o(.data)
    RxState4                                 0x2000040b   Data           1  usart_fc.o(.data)
    RxBufferNum4                             0x2000040c   Data           1  usart_fc.o(.data)
    RxBufferCnt4                             0x2000040d   Data           1  usart_fc.o(.data)
    RxLen4                                   0x2000040e   Data           1  usart_fc.o(.data)
    TxCounter5                               0x20000411   Data           1  usart_fc.o(.data)
    count5                                   0x20000412   Data           1  usart_fc.o(.data)
    RxState5                                 0x20000413   Data           1  usart_fc.o(.data)
    RxBufferNum5                             0x20000414   Data           1  usart_fc.o(.data)
    RxBufferCnt5                             0x20000415   Data           1  usart_fc.o(.data)
    RxLen5                                   0x20000416   Data           1  usart_fc.o(.data)
    leg_uart_cnt                             0x2000041a   Data           2  usart_fc.o(.data)
    kp                                       0x2000041c   Data           4  usart_fc.o(.data)
    ki                                       0x20000420   Data           4  usart_fc.o(.data)
    kd                                       0x20000424   Data           4  usart_fc.o(.data)
    ak8975                                   0x20000440   Data          44  hml5833l.o(.data)
    ak8975_ok                                0x200004c0   Data           1  hml5833l.o(.data)
    Mag_CALIBRATED                           0x200004c1   Data           1  hml5833l.o(.data)
    Mag_CALIBRATED_R                         0x200004c2   Data           1  hml5833l.o(.data)
    fly_ready                                0x200004e0   Data           1  imu.o(.data)
    Roll                                     0x200004e4   Data           4  imu.o(.data)
    Pitch                                    0x200004e8   Data           4  imu.o(.data)
    Yaw                                      0x200004ec   Data           4  imu.o(.data)
    ref_q                                    0x200004f0   Data          16  imu.o(.data)
    norm_acc                                 0x20000500   Data           4  imu.o(.data)
    norm_q                                   0x20000504   Data           4  imu.o(.data)
    norm_acc_lpf                             0x20000508   Data           4  imu.o(.data)
    test_flag                                0x2000050c   Data          12  imu.o(.data)
    imu_sel                                  0x20000518   Data           1  imu.o(.data)
    q0                                       0x2000051c   Data           4  imu.o(.data)
    q1                                       0x20000520   Data           4  imu.o(.data)
    q2                                       0x20000524   Data           4  imu.o(.data)
    q3                                       0x20000528   Data           4  imu.o(.data)
    exInt                                    0x2000052c   Data           4  imu.o(.data)
    eyInt                                    0x20000530   Data           4  imu.o(.data)
    ezInt                                    0x20000534   Data           4  imu.o(.data)
    Yaw1                                     0x20000538   Data           4  imu.o(.data)
    Pitch1                                   0x2000053c   Data           4  imu.o(.data)
    Roll1                                    0x20000540   Data           4  imu.o(.data)
    mag_norm                                 0x20000544   Data           4  imu.o(.data)
    mag_norm_xyz                             0x20000548   Data           4  imu.o(.data)
    beta_start                               0x2000054c   Data           4  imu.o(.data)
    beta_end                                 0x20000550   Data           4  imu.o(.data)
    beta_step                                0x20000554   Data           4  imu.o(.data)
    beta                                     0x20000558   Data           4  imu.o(.data)
    accConfidenceDecay                       0x2000055c   Data           4  imu.o(.data)
    hmlConfidenceDecay                       0x20000560   Data           4  imu.o(.data)
    accConfidence                            0x20000564   Data           4  imu.o(.data)
    hmlConfidence                            0x20000568   Data           4  imu.o(.data)
    norm_hml_view                            0x2000056c   Data           4  imu.o(.data)
    hmlOneMAG                                0x20000570   Data           4  imu.o(.data)
    init_hml_norm                            0x20000574   Data           1  imu.o(.data)
    init_hml_norm_cnt                        0x20000576   Data           2  imu.o(.data)
    KEY_LOCK                                 0x2000058c   Data           9  leg_lib.o(.data)
    KEY_UNLOCK                               0x20000595   Data           9  leg_lib.o(.data)
    off_local                                0x20000880   Data           8  leg.o(.data)
    k_z                                      0x20000888   Data           4  leg.o(.data)
    flt_leg                                  0x2000088c   Data           4  leg.o(.data)
    flt1                                     0x20000890   Data           4  leg.o(.data)
    en_pos_recal                             0x20000894   Data           1  leg.o(.data)
    SET_PWM3_OFF                             0x20000896   Data           2  leg.o(.data)
    en_xie                                   0x20000898   Data           1  leg.o(.data)
    rate_delay_kuai                          0x2000089c   Data           4  leg.o(.data)
    delay_time_kuai                          0x200008a0   Data           4  leg.o(.data)
    off_time_k                               0x200008a4   Data           4  leg.o(.data)
    k_trot_r                                 0x200008a8   Data           4  leg.o(.data)
    sita_test                                0x200008ac   Data          16  leg.o(.data)
    line_test                                0x200008bc   Data           4  leg.o(.data)
    force_test_mode                          0x200008c0   Data           1  leg.o(.data)
    k_add_test22                             0x200008c4   Data           4  leg.o(.data)
    test22                                   0x200008c8   Data          36  leg.o(.data)
    trig_list_trot                           0x20000914   Data           5  brain.o(.data)
    stop_leg                                 0x20000919   Data           1  brain.o(.data)
    set_max_tro                              0x2000091c   Data           4  brain.o(.data)
    min_spd_tro                              0x20000920   Data           4  brain.o(.data)
    set_trig_value_tro                       0x20000928   Data           4  brain.o(.data)
    trot_delay                               0x2000092c   Data           4  brain.o(.data)
    per_stop                                 0x20000930   Data           1  brain.o(.data)
    k_size_trot                              0x20000934   Data           4  brain.o(.data)
    size_k_trot                              0x20000938   Data           4  brain.o(.data)
    limit_deng_tro                           0x2000093c   Data           4  brain.o(.data)
    k_acc_control_trot                       0x20000940   Data           8  brain.o(.data)
    k_spd_control_trot                       0x20000948   Data           8  brain.o(.data)
    min_off_for_stable                       0x20000950   Data           4  brain.o(.data)
    kp_att                                   0x20000954   Data           4  brain.o(.data)
    ki_att                                   0x20000958   Data           4  brain.o(.data)
    kd_att                                   0x2000095c   Data           4  brain.o(.data)
    flt                                      0x20000960   Data           4  brain.o(.data)
    reset_deng                               0x20000964   Data           4  brain.o(.data)
    reset_sita                               0x20000968   Data          12  brain.o(.data)
    reset_sita1                              0x20000974   Data          12  brain.o(.data)
    reset_sita2                              0x20000980   Data          12  brain.o(.data)
    k_acc                                    0x2000098c   Data           4  brain.o(.data)
    min_off_for_stable1                      0x20000990   Data           4  brain.o(.data)
    trot_stable_dead                         0x20000994   Data           8  brain.o(.data)
    last_move_id_tro                         0x2000099c   Data           1  brain.o(.data)
    last_last_move_id_tro                    0x2000099d   Data           1  brain.o(.data)
    trig_use_now_pos_tro                     0x2000099e   Data           1  brain.o(.data)
    en_off_trig_tro                          0x2000099f   Data           1  brain.o(.data)
    h_k2_tro                                 0x200009a0   Data           4  brain.o(.data)
    k_off_tro                                0x200009a4   Data           4  brain.o(.data)
    k_trig1_tro                              0x200009a8   Data           4  brain.o(.data)
    k_rad_tro                                0x200009ac   Data           4  brain.o(.data)
    k_trig_tro                               0x200009b0   Data           4  brain.o(.data)
    en_att_trig                              0x200009b4   Data           1  brain.o(.data)
    dead_1_tro                               0x200009b8   Data           8  brain.o(.data)
    k_fall_tro                               0x200009c0   Data          12  brain.o(.data)
    flt_fall_tro                             0x200009cc   Data           4  brain.o(.data)
    trig_list_f                              0x20000a0c   Data           5  brain_g.o(.data)
    trig_list_l                              0x20000a11   Data           5  brain_g.o(.data)
    trig_list_b                              0x20000a16   Data           5  brain_g.o(.data)
    trig_list_r                              0x20000a1b   Data           5  brain_g.o(.data)
    trig_list_tr                             0x20000a20   Data           5  brain_g.o(.data)
    trig_list_tl                             0x20000a25   Data           5  brain_g.o(.data)
    side_leg                                 0x20000a2a   Data           5  brain_g.o(.data)
    side_leg_f                               0x20000a2f   Data           5  brain_g.o(.data)
    area_protect                             0x20000a34   Data           1  brain_g.o(.data)
    repeat_protect                           0x20000a35   Data           1  brain_g.o(.data)
    out_protect                              0x20000a36   Data           1  brain_g.o(.data)
    leg_off_ground_test                      0x20000a37   Data           1  brain_g.o(.data)
    en_leg_trig_list                         0x20000a38   Data           1  brain_g.o(.data)
    k_size                                   0x20000a3c   Data           4  brain_g.o(.data)
    k_force                                  0x20000a40   Data           4  brain_g.o(.data)
    force_rate                               0x20000a44   Data           4  brain_g.o(.data)
    size_k                                   0x20000a48   Data           4  brain_g.o(.data)
    limit_deng                               0x20000a4c   Data           4  brain_g.o(.data)
    k_acc_control                            0x20000a50   Data           8  brain_g.o(.data)
    k_spd_control                            0x20000a58   Data           8  brain_g.o(.data)
    force_stop_range                         0x20000a60   Data           8  brain_g.o(.data)
    flag_acc                                 0x20000a68   Data           8  brain_g.o(.data)
    k_acc1                                   0x20000a70   Data           4  brain_g.o(.data)
    set_max                                  0x20000a74   Data           4  brain_g.o(.data)
    min_spd                                  0x20000a78   Data           4  brain_g.o(.data)
    set_trig_value                           0x20000a80   Data           4  brain_g.o(.data)
    center_stable_dead                       0x20000a84   Data           4  brain_g.o(.data)
    en_off_trig                              0x20000a88   Data           1  brain_g.o(.data)
    trig_use_now_pos                         0x20000a89   Data           1  brain_g.o(.data)
    h_k2                                     0x20000a8c   Data           4  brain_g.o(.data)
    k_off                                    0x20000a90   Data           4  brain_g.o(.data)
    k_trig1                                  0x20000a94   Data           4  brain_g.o(.data)
    k_rad                                    0x20000a98   Data           4  brain_g.o(.data)
    k_trig                                   0x20000a9c   Data           4  brain_g.o(.data)
    k_spd                                    0x20000aa0   Data           4  brain_g.o(.data)
    min_steady_value_stable                  0x20000aa4   Data           4  brain_g.o(.data)
    max_dis_cog                              0x20000aa8   Data           4  brain_g.o(.data)
    ero_center                               0x20000aac   Data           8  brain_g.o(.data)
    center_control_out                       0x20000ab4   Data           8  brain_g.o(.data)
    last_move_id                             0x20000abc   Data           1  brain_g.o(.data)
    last_last_move_id                        0x20000abd   Data           1  brain_g.o(.data)
    k_fall                                   0x20000ac0   Data           4  brain_g.o(.data)
    k_add                                    0x20000ac4   Data           4  brain_g.o(.data)
    dead_1                                   0x20000ac8   Data           8  brain_g.o(.data)
    k_fall1                                  0x20000ad0   Data          12  brain_g.o(.data)
    flt_fall1                                0x20000adc   Data           4  brain_g.o(.data)
    fast_atan_table                          0x20000af8   Data        1028  my_math.o(.data)
    sbus_data_i                              0x20000efc   Data          26  sbus.o(.data)
    sbus_data                                0x20000f16   Data          26  sbus.o(.data)
    channels                                 0x20000f30   Data          36  sbus.o(.data)
    failsafe_status                          0x20000f54   Data           1  sbus.o(.data)
    sbus_passthrough                         0x20000f55   Data           1  sbus.o(.data)
    leg_dt                                   0x20000f5c   Data          20  ucos_task.o(.bss)
    LEG1_TASK_STK                            0x20000f70   Data        1024  ucos_task.o(.bss)
    LEG2_TASK_STK                            0x20001370   Data        1024  ucos_task.o(.bss)
    LEG3_TASK_STK                            0x20001770   Data        1024  ucos_task.o(.bss)
    LEG4_TASK_STK                            0x20001b70   Data        1024  ucos_task.o(.bss)
    BRAIN_TASK_STK                           0x20001f70   Data        4352  ucos_task.o(.bss)
    UART_TASK_STK                            0x20003070   Data        1024  ucos_task.o(.bss)
    START_TASK_STK                           0x20003470   Data         256  main.o(.bss)
    MsgGrp                                   0x20003570   Data        1024  main.o(.bss)
    OSEventTbl                               0x20003970   Data         200  os_core.o(.bss)
    OSFlagTbl                                0x20003a38   Data          80  os_core.o(.bss)
    OSTaskStatStk                            0x20003a88   Data         512  os_core.o(.bss)
    OSTaskIdleStk                            0x20003c88   Data         512  os_core.o(.bss)
    OSTCBPrioTbl                             0x20003e88   Data         256  os_core.o(.bss)
    OSTCBTbl                                 0x20003f88   Data        1848  os_core.o(.bss)
    OSQTbl                                   0x200046c0   Data         120  os_core.o(.bss)
    OSTmrTbl                                 0x20004738   Data         640  os_core.o(.bss)
    OSTmrTaskStk                             0x200049b8   Data         512  os_core.o(.bss)
    OSTmrWheelTbl                            0x20004bb8   Data          64  os_core.o(.bss)
    FLASH_READ_BUF                           0x20004bf8   Data         100  flash.o(.bss)
    FLASH_Buffer                             0x20004c5c   Data         100  flash.o(.bss)
    Cycle_T                                  0x20004cc0   Data         180  time.o(.bss)
    bat                                      0x20004d74   Data          20  bat.o(.bss)
    TxBuffer1                                0x20004d94   Data         256  usart_fc.o(.bss)
    Rx_Buf1                                  0x20004e94   Data         256  usart_fc.o(.bss)
    RxBuffer1                                0x20004f94   Data          50  usart_fc.o(.bss)
    TxBuffer2                                0x20004fc6   Data         256  usart_fc.o(.bss)
    Rx_Buf2                                  0x200050c6   Data         256  usart_fc.o(.bss)
    RxBuffer2                                0x200051c6   Data          50  usart_fc.o(.bss)
    tinker                                   0x200051f8   Data          76  usart_fc.o(.bss)
    TxBuffer3                                0x20005244   Data         256  usart_fc.o(.bss)
    Rx_Buf3                                  0x20005344   Data         256  usart_fc.o(.bss)
    RxBuffer3                                0x20005444   Data          50  usart_fc.o(.bss)
    TxBuffer4                                0x20005476   Data         256  usart_fc.o(.bss)
    Rx_Buf4                                  0x20005576   Data         256  usart_fc.o(.bss)
    RxBuffer4                                0x20005676   Data          50  usart_fc.o(.bss)
    Rc_Get_PWM                               0x200056a8   Data          34  usart_fc.o(.bss)
    Rc_Get_SBUS                              0x200056ca   Data          34  usart_fc.o(.bss)
    Rc_Wifi                                  0x200056ec   Data          34  usart_fc.o(.bss)
    TxBuffer5                                0x2000570e   Data         256  usart_fc.o(.bss)
    Rx_Buf5                                  0x2000580e   Data         256  usart_fc.o(.bss)
    RxBuffer5                                0x2000590e   Data          50  usart_fc.o(.bss)
    SendBuff1                                0x20005940   Data         256  usart_fc.o(.bss)
    SendBuff3                                0x20005a40   Data          32  usart_fc.o(.bss)
    mpu6050                                  0x20005a74   Data         160  mpu6050.o(.bss)
    mpu6050_fc                               0x20005b14   Data         160  mpu6050.o(.bss)
    mpu6050_buffer                           0x20005bb4   Data          14  mpu6050.o(.bss)
    sum_temp                                 0x20005bc4   Data          28  mpu6050.o(.bss)
    sum_temp_3d                              0x20005be0   Data          28  mpu6050.o(.bss)
    FILT_BUF                                 0x20005bfc   Data         154  mpu6050.o(.bss)
    mpu6050_tmp                              0x20005c98   Data          28  mpu6050.o(.bss)
    mpu_fil_tmp                              0x20005cb4   Data          28  mpu6050.o(.bss)
    license                                  0x20005cdc   Data         129  leg_lib.o(.bss)
    MesHex_OUT                               0x2000605d   Data         128  leg_lib.o(.bss)
    MyMessage_Kick                           0x200060dd   Data         125  leg_lib.o(.bss)
    leg                                      0x20006490   Data        2740  leg.o(.bss)
    brain                                    0x20006f48   Data         952  leg.o(.bss)
    c0                                       0x20007300   Data          60  leg.o(.bss)
    c3                                       0x2000733c   Data          60  leg.o(.bss)
    c4                                       0x20007378   Data          60  leg.o(.bss)
    c5                                       0x200073b4   Data          60  leg.o(.bss)
    c6                                       0x200073f0   Data          60  leg.o(.bss)
    att_control_out                          0x20007598   Data          20  brain.o(.bss)
    out_range_move_tro                       0x200075ac   Data          10  brain.o(.bss)
    Ts                                       0x200075b8   Data          12  brain.o(.bss)
    control_draw                             0x200075d8   Data         200  brain_g.o(.bss)
    out_range_move                           0x200076a0   Data          10  brain_g.o(.bss)
    __initial_sp                             0x20007ab0   Data           0  startup_stm32f40_41xxx.o(STACK)



==============================================================================

Memory Map of the image

  Image Entry point : 0x08000189

  Load Region LR_IROM1 (Base: 0x08000000, Size: 0x0002516c, Max: 0x00100000, ABSOLUTE, COMPRESSED[0x00024be4])

    Execution Region ER_IROM1 (Base: 0x08000000, Size: 0x00024210, Max: 0x00100000, ABSOLUTE)

    Base Addr    Size         Type   Attr      Idx    E Section Name        Object

    0x08000000   0x00000188   Data   RO          431    RESET               startup_stm32f40_41xxx.o
    0x08000188   0x00000000   Code   RO         1893  * .ARM.Collect$$$$00000000  mc_w.l(entry.o)
    0x08000188   0x00000004   Code   RO         1963    .ARM.Collect$$$$00000001  mc_w.l(entry2.o)
    0x0800018c   0x00000004   Code   RO         1966    .ARM.Collect$$$$00000004  mc_w.l(entry5.o)
    0x08000190   0x00000000   Code   RO         1968    .ARM.Collect$$$$00000008  mc_w.l(entry7b.o)
    0x08000190   0x00000000   Code   RO         1970    .ARM.Collect$$$$0000000A  mc_w.l(entry8b.o)
    0x08000190   0x00000008   Code   RO         1971    .ARM.Collect$$$$0000000B  mc_w.l(entry9a.o)
    0x08000198   0x00000000   Code   RO         1973    .ARM.Collect$$$$0000000D  mc_w.l(entry10a.o)
    0x08000198   0x00000000   Code   RO         1975    .ARM.Collect$$$$0000000F  mc_w.l(entry11a.o)
    0x08000198   0x00000004   Code   RO         1964    .ARM.Collect$$$$00002712  mc_w.l(entry2.o)
    0x0800019c   0x00001ab8   Code   RO            3    .text               ucos_task.o
    0x08001c54   0x00000270   Code   RO          313    .text               main.o
    0x08001ec4   0x00000020   Code   RO          353    .text               stm32f4xx_it.o
    0x08001ee4   0x00000210   Code   RO          405    .text               system_stm32f4xx.o
    0x080020f4   0x00000024   Code   RO          432    .text               startup_stm32f40_41xxx.o
    0x08002118   0x00000108   Code   RO          438    .text               delay.o
    0x08002220   0x000000e0   Code   RO          478    .text               misc.o
    0x08002300   0x00000294   Code   RO          498    .text               stm32f4xx_gpio.o
    0x08002594   0x0000065c   Code   RO          541    .text               stm32f4xx_rcc.o
    0x08002bf0   0x00000454   Code   RO          583    .text               stm32f4xx_usart.o
    0x08003044   0x00000ca2   Code   RO          603    .text               stm32f4xx_tim.o
    0x08003ce6   0x00000002   PAD
    0x08003ce8   0x00000694   Code   RO          623    .text               stm32f4xx_flash.o
    0x0800437c   0x000003a8   Code   RO          703    .text               stm32f4xx_dma.o
    0x08004724   0x000000a0   Code   RO          723    .text               stm32f4xx_rng.o
    0x080047c4   0x00000464   Code   RO          763    .text               stm32f4xx_adc.o
    0x08004c28   0x00000894   Code   RO          783    .text               os_core.o
    0x080054bc   0x0000080c   Code   RO          811    .text               os_flag.o
    0x08005cc8   0x000003cc   Code   RO          831    .text               os_mbox.o
    0x08006094   0x000005e8   Code   RO          885    .text               os_q.o
    0x0800667c   0x0000038c   Code   RO          905    .text               os_sem.o
    0x08006a08   0x000007c4   Code   RO          925    .text               os_task.o
    0x080071cc   0x000001b0   Code   RO          945    .text               os_time.o
    0x0800737c   0x00000634   Code   RO          965    .text               os_tmr.o
    0x080079b0   0x000000c8   Code   RO          983    .text               os_cpu_a.o
    0x08007a78   0x000001e8   Code   RO          988    .text               os_cpu_c.o
    0x08007c60   0x00000f08   Code   RO         1018    .text               flash.o
    0x08008b68   0x00000430   Code   RO         1053    .text               led_fc.o
    0x08008f98   0x00000634   Code   RO         1080    .text               pwm_out.o
    0x080095cc   0x00000164   Code   RO         1114    .text               time.o
    0x08009730   0x000000e8   Code   RO         1145    .text               dma.o
    0x08009818   0x0000006c   Code   RO         1165    .text               rng.o
    0x08009884   0x00000450   Code   RO         1205    .text               bat.o
    0x08009cd4   0x0000047a   Code   RO         1232    .text               beep.o
    0x0800a14e   0x00000002   PAD
    0x0800a150   0x00002c34   Code   RO         1258    .text               usart_fc.o
    0x0800cd84   0x0000407c   Code   RO         1490    .text               leg_lib.o
    0x08010e00   0x00003fd4   Code   RO         1519    .text               leg.o
    0x08014dd4   0x0000501c   Code   RO         1552    .text               brain.o
    0x08019df0   0x00006a5c   Code   RO         1581    .text               brain_g.o
    0x0802084c   0x000006c0   Code   RO         1637    .text               my_math.o
    0x08020f0c   0x00000260   Code   RO         1659    .text               sbus_oldx.lib(sbus.o)
    0x0802116c   0x00000024   Code   RO         1896    .text               mc_w.l(memcpya.o)
    0x08021190   0x00000024   Code   RO         1898    .text               mc_w.l(memseta.o)
    0x080211b4   0x0000014e   Code   RO         1902    .text               mf_w.l(dadd.o)
    0x08021302   0x000000e4   Code   RO         1904    .text               mf_w.l(dmul.o)
    0x080213e6   0x000000de   Code   RO         1906    .text               mf_w.l(ddiv.o)
    0x080214c4   0x00000022   Code   RO         1910    .text               mf_w.l(dflti.o)
    0x080214e6   0x0000001a   Code   RO         1912    .text               mf_w.l(dfltui.o)
    0x08021500   0x0000003e   Code   RO         1914    .text               mf_w.l(dfixi.o)
    0x0802153e   0x00000026   Code   RO         1916    .text               mf_w.l(f2d.o)
    0x08021564   0x00000030   Code   RO         1918    .text               mf_w.l(cdcmple.o)
    0x08021594   0x00000030   Code   RO         1920    .text               mf_w.l(cdrcmple.o)
    0x080215c4   0x00000038   Code   RO         1922    .text               mf_w.l(d2f.o)
    0x080215fc   0x0000001e   Code   RO         1977    .text               mc_w.l(llshl.o)
    0x0802161a   0x00000020   Code   RO         1979    .text               mc_w.l(llushr.o)
    0x0802163a   0x00000024   Code   RO         1981    .text               mc_w.l(llsshr.o)
    0x0802165e   0x00000000   Code   RO         1990    .text               mc_w.l(iusefp.o)
    0x0802165e   0x0000006e   Code   RO         1991    .text               mf_w.l(fepilogue.o)
    0x080216cc   0x000000ba   Code   RO         1993    .text               mf_w.l(depilogue.o)
    0x08021786   0x0000002e   Code   RO         1995    .text               mf_w.l(dscalb.o)
    0x080217b4   0x000000a2   Code   RO         1997    .text               mf_w.l(dsqrt.o)
    0x08021856   0x00000002   PAD
    0x08021858   0x00000024   Code   RO         1999    .text               mc_w.l(init.o)
    0x0802187c   0x00000056   Code   RO         2009    .text               mc_w.l(__dczerorl2.o)
    0x080218d2   0x00000030   Code   RO         1941    i.__ARM_fpclassify  m_wm.l(fpclassify.o)
    0x08021902   0x00000006   PAD
    0x08021908   0x00000358   Code   RO         1771    i.__hardfp_acos     m_wm.l(acos.o)
    0x08021c60   0x000002d8   Code   RO         1799    i.__hardfp_atan     m_wm.l(atan.o)
    0x08021f38   0x000001f0   Code   RO         1813    i.__hardfp_atan2    m_wm.l(atan2.o)
    0x08022128   0x000000c8   Code   RO         1825    i.__hardfp_cos      m_wm.l(cos.o)
    0x080221f0   0x00000014   Code   RO         1837    i.__hardfp_fabs     m_wm.l(fabs.o)
    0x08022204   0x00000004   PAD
    0x08022208   0x00000c50   Code   RO         1843    i.__hardfp_pow      m_wm.l(pow.o)
    0x08022e58   0x000000c8   Code   RO         1857    i.__hardfp_sin      m_wm.l(sin.o)
    0x08022f20   0x0000007a   Code   RO         1869    i.__hardfp_sqrt     m_wm.l(sqrt.o)
    0x08022f9a   0x00000006   PAD
    0x08022fa0   0x00000080   Code   RO         1881    i.__hardfp_tan      m_wm.l(tan.o)
    0x08023020   0x00000438   Code   RO         1946    i.__ieee754_rem_pio2  m_wm.l(rred.o)
    0x08023458   0x00000170   Code   RO         1924    i.__kernel_cos      m_wm.l(cos_i.o)
    0x080235c8   0x000000f8   Code   RO         1943    i.__kernel_poly     m_wm.l(poly.o)
    0x080236c0   0x00000130   Code   RO         1951    i.__kernel_sin      m_wm.l(sin_i.o)
    0x080237f0   0x00000350   Code   RO         1957    i.__kernel_tan      m_wm.l(tan_i.o)
    0x08023b40   0x00000030   Code   RO         1927    i.__mathlib_dbl_divzero  m_wm.l(dunder.o)
    0x08023b70   0x00000014   Code   RO         1928    i.__mathlib_dbl_infnan  m_wm.l(dunder.o)
    0x08023b84   0x00000014   Code   RO         1929    i.__mathlib_dbl_infnan2  m_wm.l(dunder.o)
    0x08023b98   0x00000020   Code   RO         1930    i.__mathlib_dbl_invalid  m_wm.l(dunder.o)
    0x08023bb8   0x00000020   Code   RO         1931    i.__mathlib_dbl_overflow  m_wm.l(dunder.o)
    0x08023bd8   0x00000020   Code   RO         1933    i.__mathlib_dbl_underflow  m_wm.l(dunder.o)
    0x08023bf8   0x0000000e   Code   RO         2003    i.__scatterload_copy  mc_w.l(handlers.o)
    0x08023c06   0x00000002   Code   RO         2004    i.__scatterload_null  mc_w.l(handlers.o)
    0x08023c08   0x0000000e   Code   RO         2005    i.__scatterload_zeroinit  mc_w.l(handlers.o)
    0x08023c16   0x00000002   PAD
    0x08023c18   0x0000000c   Code   RO         1985    i.__set_errno       mc_w.l(errno.o)
    0x08023c24   0x00000010   Code   RO         1801    i.atan              m_wm.l(atan.o)
    0x08023c34   0x00000018   Code   RO         1839    i.fabs              m_wm.l(fabs.o)
    0x08023c4c   0x0000006e   Code   RO         1871    i.sqrt              m_wm.l(sqrt.o)
    0x08023cba   0x00000002   PAD
    0x08023cbc   0x00000010   Data   RO            5    .constdata          ucos_task.o
    0x08023ccc   0x00000100   Data   RO          785    .constdata          os_core.o
    0x08023dcc   0x00000090   Data   RO         1492    .constdata          leg_lib.o
    0x08023e5c   0x00000008   Data   RO         1521    .constdata          leg.o
    0x08023e64   0x00000004   PAD
    0x08023e68   0x00000058   Data   RO         1554    .constdata          brain.o
    0x08023ec0   0x00000034   Data   RO         1583    .constdata          brain_g.o
    0x08023ef4   0x00000004   PAD
    0x08023ef8   0x00000050   Data   RO         1774    .constdata          m_wm.l(acos.o)
    0x08023f48   0x00000098   Data   RO         1802    .constdata          m_wm.l(atan.o)
    0x08023fe0   0x00000088   Data   RO         1846    .constdata          m_wm.l(pow.o)
    0x08024068   0x00000030   Data   RO         1925    .constdata          m_wm.l(cos_i.o)
    0x08024098   0x00000008   Data   RO         1945    .constdata          m_wm.l(qnan.o)
    0x080240a0   0x000000c8   Data   RO         1948    .constdata          m_wm.l(rred.o)
    0x08024168   0x00000028   Data   RO         1952    .constdata          m_wm.l(sin_i.o)
    0x08024190   0x00000060   Data   RO         1958    .constdata          m_wm.l(tan_i.o)
    0x080241f0   0x00000020   Data   RO         2001    Region$$Table       anon$$obj.o


    Execution Region RW_IRAM1 (Base: 0x20000000, Size: 0x00007ab0, Max: 0x00020000, ABSOLUTE, COMPRESSED[0x000009d4])

    Base Addr    Size         Type   Attr      Idx    E Section Name        Object

    0x20000000   0x0000008f   Data   RW            6    .data               ucos_task.o
    0x2000008f   0x00000001   PAD
    0x20000090   0x0000010e   Data   RW          315    .data               main.o
    0x2000019e   0x00000001   Data   RW          354    .data               stm32f4xx_it.o
    0x2000019f   0x00000001   PAD
    0x200001a0   0x00000014   Data   RW          406    .data               system_stm32f4xx.o
    0x200001b4   0x00000004   Data   RW          439    .data               delay.o
    0x200001b8   0x00000010   Data   RW          542    .data               stm32f4xx_rcc.o
    0x200001c8   0x0000005c   Data   RW          786    .data               os_core.o
    0x20000224   0x00000006   Data   RW          989    .data               os_cpu_c.o
    0x2000022a   0x00000002   PAD
    0x2000022c   0x0000002a   Data   RW         1020    .data               flash.o
    0x20000256   0x0000000f   Data   RW         1054    .data               led_fc.o
    0x20000265   0x00000003   PAD
    0x20000268   0x00000059   Data   RW         1082    .data               pwm_out.o
    0x200002c1   0x00000003   PAD
    0x200002c4   0x00000010   Data   RW         1207    .data               bat.o
    0x200002d4   0x00000112   Data   RW         1233    .data               beep.o
    0x200003e6   0x00000002   PAD
    0x200003e8   0x00000056   Data   RW         1260    .data               usart_fc.o
    0x2000043e   0x00000002   PAD
    0x20000440   0x000000a0   Data   RW         1350    .data               hml5833l.o
    0x200004e0   0x000000a9   Data   RW         1378    .data               imu.o
    0x20000589   0x00000003   PAD
    0x2000058c   0x000002f4   Data   RW         1493    .data               leg_lib.o
    0x20000880   0x00000091   Data   RW         1522    .data               leg.o
    0x20000911   0x00000003   PAD
    0x20000914   0x000000f5   Data   RW         1555    .data               brain.o
    0x20000a09   0x00000003   PAD
    0x20000a0c   0x000000eb   Data   RW         1584    .data               brain_g.o
    0x20000af7   0x00000001   PAD
    0x20000af8   0x00000404   Data   RW         1638    .data               my_math.o
    0x20000efc   0x0000005c   Data   RW         1660    .data               sbus_oldx.lib(sbus.o)
    0x20000f58   0x00000004   Data   RW         1986    .data               mc_w.l(errno.o)
    0x20000f5c   0x00002514   Zero   RW            4    .bss                ucos_task.o
    0x20003470   0x00000500   Zero   RW          314    .bss                main.o
    0x20003970   0x00001288   Zero   RW          784    .bss                os_core.o
    0x20004bf8   0x000000c8   Zero   RW         1019    .bss                flash.o
    0x20004cc0   0x000000b4   Zero   RW         1115    .bss                time.o
    0x20004d74   0x0000001e   Zero   RW         1206    .bss                bat.o
    0x20004d92   0x00000002   PAD
    0x20004d94   0x00000ce0   Zero   RW         1259    .bss                usart_fc.o
    0x20005a74   0x00000268   Zero   RW         1287    .bss                mpu6050.o
    0x20005cdc   0x000007ae   Zero   RW         1491    .bss                leg_lib.o
    0x2000648a   0x00000006   PAD
    0x20006490   0x00001106   Zero   RW         1520    .bss                leg.o
    0x20007596   0x00000002   PAD
    0x20007598   0x00000040   Zero   RW         1553    .bss                brain.o
    0x200075d8   0x000000d2   Zero   RW         1582    .bss                brain_g.o
    0x200076aa   0x00000006   PAD
    0x200076b0   0x00000400   Zero   RW          429    STACK               startup_stm32f40_41xxx.o


==============================================================================

Image component sizes


      Code (inc. data)   RO Data    RW Data    ZI Data      Debug   Object Name

      1104        116          0         16         30       2290   bat.o
      1146        100          0        274          0       4333   beep.o
     20508        902         88        245         64      19395   brain.o
     27228        886         52        235        210      21735   brain_g.o
       264         18          0          4          0       1383   delay.o
       232          4          0          0          0       1428   dma.o
      3848        228          0         42        200       4163   flash.o
         0          0          0        160          0       2563   hml5833l.o
         0          0          0        169          0       9190   imu.o
      1072         80          0         15          0       2426   led_fc.o
     16340        516          8        145       4358      24029   leg.o
     16508        426        144        756       1966      47028   leg_lib.o
       624        128          0        270       1280       2049   main.o
       224         20          0          0          0       1785   misc.o
         0          0          0          0        616      14371   mpu6050.o
      1728        122          0       1028          0       6147   my_math.o
      2196        218        256         92       4744      15955   os_core.o
       200         32          0          0          0        308   os_cpu_a.o
       488          8          0          6          0      11743   os_cpu_c.o
      2060         42          0          0          0       7192   os_flag.o
       972         16          0          0          0       4294   os_mbox.o
      1512         30          0          0          0       5753   os_q.o
       908         18          0          0          0       4026   os_sem.o
      1988         70          0          0          0       7869   os_task.o
       432         30          0          0          0       1862   os_time.o
      1588         94          0          0          0       5713   os_tmr.o
      1588         68          0         89          0       3380   pwm_out.o
       108          0          0          0          0        993   rng.o
        36          8        392          0       1024        812   startup_stm32f40_41xxx.o
      1124         24          0          0          0      10654   stm32f4xx_adc.o
       936         32          0          0          0       6365   stm32f4xx_dma.o
      1684         28          0          0          0       9390   stm32f4xx_flash.o
       660         44          0          0          0       4129   stm32f4xx_gpio.o
        32          4          0          1          0     228787   stm32f4xx_it.o
      1628         52          0         16          0      12984   stm32f4xx_rcc.o
       160          4          0          0          0       1792   stm32f4xx_rng.o
      3234         60          0          0          0      22984   stm32f4xx_tim.o
      1108         34          0          0          0       7852   stm32f4xx_usart.o
       528         46          0         20          0       1731   system_stm32f4xx.o
       356         18          0          0        180      29341   time.o
      6840        450         16        143       9492     332724   ucos_task.o
     11316        392          0         86       3296      24858   usart_fc.o

    ----------------------------------------------------------------------
    134512       5368        996       3836      27476     927806   Object Totals
         0          0         32          0          0          0   (incl. Generated)
         4          0          8         24         16          0   (incl. Padding)

    ----------------------------------------------------------------------

      Code (inc. data)   RO Data    RW Data    ZI Data      Debug   Library Member Name

       856        118         80          0          0        288   acos.o
       744        106        152          0          0        352   atan.o
       496         64          0          0          0        192   atan2.o
       200         20          0          0          0        164   cos.o
       368         46         48          0          0        200   cos_i.o
       184         44          0          0          0        744   dunder.o
        44          0          0          0          0        248   fabs.o
        48          0          0          0          0        124   fpclassify.o
       248          0          0          0          0        152   poly.o
      3152        296        136          0          0        352   pow.o
         0          0          8          0          0          0   qnan.o
      1080        142        200          0          0        188   rred.o
       200         20          0          0          0        164   sin.o
       304         24         40          0          0        208   sin_i.o
       232          0          0          0          0        296   sqrt.o
       128         20          0          0          0        144   tan.o
       848         84         96          0          0        196   tan_i.o
        86          0          0          0          0          0   __dczerorl2.o
         0          0          0          0          0          0   entry.o
         0          0          0          0          0          0   entry10a.o
         0          0          0          0          0          0   entry11a.o
         8          4          0          0          0          0   entry2.o
         4          0          0          0          0          0   entry5.o
         0          0          0          0          0          0   entry7b.o
         0          0          0          0          0          0   entry8b.o
         8          4          0          0          0          0   entry9a.o
        12          6          0          4          0         68   errno.o
        30          0          0          0          0          0   handlers.o
        36          8          0          0          0         68   init.o
         0          0          0          0          0          0   iusefp.o
        30          0          0          0          0         68   llshl.o
        36          0          0          0          0         68   llsshr.o
        32          0          0          0          0         68   llushr.o
        36          0          0          0          0         68   memcpya.o
        36          0          0          0          0        108   memseta.o
        48          0          0          0          0         68   cdcmple.o
        48          0          0          0          0         68   cdrcmple.o
        56          0          0          0          0         88   d2f.o
       334          0          0          0          0        148   dadd.o
       222          0          0          0          0        100   ddiv.o
       186          0          0          0          0        176   depilogue.o
        62          0          0          0          0         80   dfixi.o
        34          0          0          0          0         76   dflti.o
        26          0          0          0          0         76   dfltui.o
       228          0          0          0          0         96   dmul.o
        46          0          0          0          0         80   dscalb.o
       162          0          0          0          0        100   dsqrt.o
        38          0          0          0          0         68   f2d.o
       110          0          0          0          0        168   fepilogue.o
       608         26          0         92          0     217216   sbus.o

    ----------------------------------------------------------------------
     11716       1032        760         96          0     223136   Library Totals
        22          0          0          0          0          0   (incl. Padding)

    ----------------------------------------------------------------------

      Code (inc. data)   RO Data    RW Data    ZI Data      Debug   Library Name

      9132        984        760          0          0       4012   m_wm.l
       354         22          0          4          0        516   mc_w.l
      1600          0          0          0          0       1392   mf_w.l
       608         26          0         92          0     217216   sbus_oldx.lib

    ----------------------------------------------------------------------
     11716       1032        760         96          0     223136   Library Totals

    ----------------------------------------------------------------------

==============================================================================


      Code (inc. data)   RO Data    RW Data    ZI Data      Debug   

    146228       6400       1756       3932      27476    1139490   Grand Totals
    146228       6400       1756       2516      27476    1139490   ELF Image Totals (compressed)
    146228       6400       1756       2516          0          0   ROM Totals

==============================================================================

    Total RO  Size (Code + RO Data)               147984 ( 144.52kB)
    Total RW  Size (RW Data + ZI Data)             31408 (  30.67kB)
    Total ROM Size (Code + RO Data + RW Data)     150500 ( 146.97kB)

==============================================================================

